	.text
	.file	"1q8fx1me7xr7tan9"
	.section	.text._ZN3std10sys_common9backtrace28__rust_begin_short_backtrace17h03e5fc3a2da23548E,"ax",@progbits
	.p2align	4, 0x90
	.type	_ZN3std10sys_common9backtrace28__rust_begin_short_backtrace17h03e5fc3a2da23548E,@function
_ZN3std10sys_common9backtrace28__rust_begin_short_backtrace17h03e5fc3a2da23548E:
.Lfunc_begin0:
	.file	1 "/rustc/9b00956e56009bab2aa15d7bff10916599e3d6d6/library/std/src/sys_common" "backtrace.rs"
	.loc	1 151 0
	.cfi_startproc
	pushq	%rax
	.cfi_def_cfa_offset 16
.Ltmp0:
	.file	2 "/rustc/9b00956e56009bab2aa15d7bff10916599e3d6d6/library/core/src/ops" "function.rs"
	.loc	2 250 5 prologue_end
	callq	*%rdi
.Ltmp1:
	.file	3 "/rustc/9b00956e56009bab2aa15d7bff10916599e3d6d6/library/core/src" "hint.rs"
	.loc	3 337 5
	#APP
	#NO_APP
.Ltmp2:
	.loc	1 161 2 epilogue_begin
	popq	%rax
	.cfi_def_cfa_offset 8
	retq
.Ltmp3:
.Lfunc_end0:
	.size	_ZN3std10sys_common9backtrace28__rust_begin_short_backtrace17h03e5fc3a2da23548E, .Lfunc_end0-_ZN3std10sys_common9backtrace28__rust_begin_short_backtrace17h03e5fc3a2da23548E
	.cfi_endproc

	.section	.text._ZN3std2rt10lang_start17h82ea71c298042edfE,"ax",@progbits
	.hidden	_ZN3std2rt10lang_start17h82ea71c298042edfE
	.globl	_ZN3std2rt10lang_start17h82ea71c298042edfE
	.p2align	4, 0x90
	.type	_ZN3std2rt10lang_start17h82ea71c298042edfE,@function
_ZN3std2rt10lang_start17h82ea71c298042edfE:
.Lfunc_begin1:
	.file	4 "/rustc/9b00956e56009bab2aa15d7bff10916599e3d6d6/library/std/src" "rt.rs"
	.loc	4 159 0
	.cfi_startproc
	pushq	%rax
	.cfi_def_cfa_offset 16
	movl	%ecx, %r8d
	movq	%rdx, %rcx
.Ltmp4:
	movq	%rsi, %rdx
.Ltmp5:
	.loc	4 166 10 prologue_end
	movq	%rdi, (%rsp)
	.loc	4 165 17
	leaq	.L__unnamed_1(%rip), %rsi
.Ltmp6:
	.loc	4 0 17 is_stmt 0
	movq	%rsp, %rdi
.Ltmp7:
	.loc	4 165 17
	callq	*_ZN3std2rt19lang_start_internal17h103c42a9c4e95084E@GOTPCREL(%rip)
.Ltmp8:
	.loc	4 172 2 epilogue_begin is_stmt 1
	popq	%rcx
	.cfi_def_cfa_offset 8
	retq
.Ltmp9:
.Lfunc_end1:
	.size	_ZN3std2rt10lang_start17h82ea71c298042edfE, .Lfunc_end1-_ZN3std2rt10lang_start17h82ea71c298042edfE
	.cfi_endproc

	.section	".text._ZN3std2rt10lang_start28_$u7b$$u7b$closure$u7d$$u7d$17h7d812531221dcfd8E","ax",@progbits
	.p2align	4, 0x90
	.type	_ZN3std2rt10lang_start28_$u7b$$u7b$closure$u7d$$u7d$17h7d812531221dcfd8E,@function
_ZN3std2rt10lang_start28_$u7b$$u7b$closure$u7d$$u7d$17h7d812531221dcfd8E:
.Lfunc_begin2:
	.loc	4 166 0
	.cfi_startproc
	pushq	%rax
	.cfi_def_cfa_offset 16
.Ltmp10:
	.loc	4 166 77 prologue_end
	movq	(%rdi), %rdi
.Ltmp11:
	.loc	4 166 18 is_stmt 0
	callq	_ZN3std10sys_common9backtrace28__rust_begin_short_backtrace17h03e5fc3a2da23548E
	.loc	4 166 100
	xorl	%eax, %eax
	.loc	4 166 100 epilogue_begin
	popq	%rcx
	.cfi_def_cfa_offset 8
	retq
.Ltmp12:
.Lfunc_end2:
	.size	_ZN3std2rt10lang_start28_$u7b$$u7b$closure$u7d$$u7d$17h7d812531221dcfd8E, .Lfunc_end2-_ZN3std2rt10lang_start28_$u7b$$u7b$closure$u7d$$u7d$17h7d812531221dcfd8E
	.cfi_endproc

	.section	".text._ZN4core3ops8function6FnOnce40call_once$u7b$$u7b$vtable.shim$u7d$$u7d$17h08cfaf9a2982dd00E","ax",@progbits
	.p2align	4, 0x90
	.type	_ZN4core3ops8function6FnOnce40call_once$u7b$$u7b$vtable.shim$u7d$$u7d$17h08cfaf9a2982dd00E,@function
_ZN4core3ops8function6FnOnce40call_once$u7b$$u7b$vtable.shim$u7d$$u7d$17h08cfaf9a2982dd00E:
.Lfunc_begin3:
	.loc	2 250 0 is_stmt 1
	.cfi_startproc
	pushq	%rax
	.cfi_def_cfa_offset 16
.Ltmp13:
	.loc	2 250 5 prologue_end
	movq	(%rdi), %rdi
.Ltmp14:
	.loc	4 166 18
	callq	_ZN3std10sys_common9backtrace28__rust_begin_short_backtrace17h03e5fc3a2da23548E
.Ltmp15:
	.loc	2 250 5
	xorl	%eax, %eax
	.loc	2 250 5 epilogue_begin is_stmt 0
	popq	%rcx
	.cfi_def_cfa_offset 8
	retq
.Ltmp16:
.Lfunc_end3:
	.size	_ZN4core3ops8function6FnOnce40call_once$u7b$$u7b$vtable.shim$u7d$$u7d$17h08cfaf9a2982dd00E, .Lfunc_end3-_ZN4core3ops8function6FnOnce40call_once$u7b$$u7b$vtable.shim$u7d$$u7d$17h08cfaf9a2982dd00E
	.cfi_endproc

	.section	".text._ZN4core3ptr35drop_in_place$LT$std..env..Args$GT$17ha6d47fd8a1f16702E","ax",@progbits
	.p2align	4, 0x90
	.type	_ZN4core3ptr35drop_in_place$LT$std..env..Args$GT$17ha6d47fd8a1f16702E,@function
_ZN4core3ptr35drop_in_place$LT$std..env..Args$GT$17ha6d47fd8a1f16702E:
.Lfunc_begin4:
	.file	5 "/rustc/9b00956e56009bab2aa15d7bff10916599e3d6d6/library/core/src/ptr" "mod.rs"
	.loc	5 515 0 is_stmt 1
	.cfi_startproc
	pushq	%r15
	.cfi_def_cfa_offset 16
	pushq	%r14
	.cfi_def_cfa_offset 24
	pushq	%r12
	.cfi_def_cfa_offset 32
	pushq	%rbx
	.cfi_def_cfa_offset 40
	pushq	%rax
	.cfi_def_cfa_offset 48
	.cfi_offset %rbx, -40
	.cfi_offset %r12, -32
	.cfi_offset %r14, -24
	.cfi_offset %r15, -16
	movq	%rdi, %rbx
.Ltmp17:
	.file	6 "/rustc/9b00956e56009bab2aa15d7bff10916599e3d6d6/library/alloc/src/vec" "into_iter.rs"
	.loc	6 444 32 prologue_end
	movq	8(%rdi), %r15
	movq	24(%rdi), %rcx
.Ltmp18:
	.loc	5 515 1
	movq	%rcx, %rax
	subq	%r15, %rax
	movabsq	$-6148914691236517205, %rdx
.Ltmp19:
	.file	7 "/rustc/9b00956e56009bab2aa15d7bff10916599e3d6d6/library/core/src/ptr" "const_ptr.rs"
	.loc	7 842 18
	mulq	%rdx
.Ltmp20:
	.loc	5 515 1
	cmpq	%r15, %rcx
	je	.LBB4_5
.Ltmp21:
	.loc	6 444 0
	movq	%rdx, %r14
	shrq	$4, %r14
.Ltmp22:
	.file	8 "/rustc/9b00956e56009bab2aa15d7bff10916599e3d6d6/library/alloc/src" "raw_vec.rs"
	.loc	8 280 25
	addq	$8, %r15
.Ltmp23:
	.loc	8 0 25 is_stmt 0
	movq	__rust_dealloc@GOTPCREL(%rip), %r12
	jmp	.LBB4_2
.Ltmp24:
	.p2align	4, 0x90
.LBB4_4:
	.loc	5 515 1 is_stmt 1
	addq	$24, %r15
	decq	%r14
	je	.LBB4_5
.Ltmp25:
.LBB4_2:
	movq	-8(%r15), %rsi
.Ltmp26:
	.loc	8 280 25
	testq	%rsi, %rsi
	je	.LBB4_4
.Ltmp27:
	.loc	5 515 1
	movq	(%r15), %rdi
.Ltmp28:
	.file	9 "/rustc/9b00956e56009bab2aa15d7bff10916599e3d6d6/library/alloc/src" "alloc.rs"
	.loc	9 119 14
	movl	$1, %edx
	callq	*%r12
.Ltmp29:
	.loc	9 0 14 is_stmt 0
	jmp	.LBB4_4
.Ltmp30:
.LBB4_5:
	.loc	6 436 76 is_stmt 1
	movq	16(%rbx), %rax
.Ltmp31:
	.loc	8 280 25
	testq	%rax, %rax
	je	.LBB4_6
.Ltmp32:
	.loc	6 436 55
	movq	(%rbx), %rdi
.Ltmp33:
	.file	10 "/rustc/9b00956e56009bab2aa15d7bff10916599e3d6d6/library/core/src/num" "mod.rs"
	.loc	10 1281 5
	shlq	$3, %rax
.Ltmp34:
	leaq	(%rax,%rax,2), %rsi
.Ltmp35:
	.loc	9 119 14
	movl	$8, %edx
	.loc	9 119 14 epilogue_begin is_stmt 0
	addq	$8, %rsp
	.cfi_def_cfa_offset 40
	popq	%rbx
.Ltmp36:
	.cfi_def_cfa_offset 32
	popq	%r12
	.cfi_def_cfa_offset 24
	popq	%r14
	.cfi_def_cfa_offset 16
	popq	%r15
	.cfi_def_cfa_offset 8
	jmpq	*__rust_dealloc@GOTPCREL(%rip)
.Ltmp37:
.LBB4_6:
	.cfi_def_cfa_offset 48
	.loc	5 515 1 epilogue_begin is_stmt 1
	addq	$8, %rsp
	.cfi_def_cfa_offset 40
	popq	%rbx
.Ltmp38:
	.cfi_def_cfa_offset 32
	popq	%r12
	.cfi_def_cfa_offset 24
	popq	%r14
	.cfi_def_cfa_offset 16
	popq	%r15
	.cfi_def_cfa_offset 8
	retq
.Ltmp39:
.Lfunc_end4:
	.size	_ZN4core3ptr35drop_in_place$LT$std..env..Args$GT$17ha6d47fd8a1f16702E, .Lfunc_end4-_ZN4core3ptr35drop_in_place$LT$std..env..Args$GT$17ha6d47fd8a1f16702E
	.cfi_endproc
	.file	11 "/rustc/9b00956e56009bab2aa15d7bff10916599e3d6d6/library/core/src/ptr" "non_null.rs"
	.file	12 "/rustc/9b00956e56009bab2aa15d7bff10916599e3d6d6/library/core/src/iter/traits" "exact_size.rs"
	.file	13 "/rustc/9b00956e56009bab2aa15d7bff10916599e3d6d6/library/core/src/num" "uint_macros.rs"

	.section	".text._ZN4core3ptr50drop_in_place$LT$rand..rngs..thread..ThreadRng$GT$17hff8866d097a63c5aE","ax",@progbits
	.p2align	4, 0x90
	.type	_ZN4core3ptr50drop_in_place$LT$rand..rngs..thread..ThreadRng$GT$17hff8866d097a63c5aE,@function
_ZN4core3ptr50drop_in_place$LT$rand..rngs..thread..ThreadRng$GT$17hff8866d097a63c5aE:
.Lfunc_begin5:
	.cfi_startproc
	.loc	5 1493 9 prologue_end
	decq	(%rdi)
.Ltmp40:
	.file	14 "/rustc/9b00956e56009bab2aa15d7bff10916599e3d6d6/library/alloc/src" "rc.rs"
	.loc	14 2162 16
	jne	.LBB5_2
.Ltmp41:
	.loc	5 1493 9
	decq	8(%rdi)
.Ltmp42:
	.loc	14 2170 20
	je	.LBB5_3
.Ltmp43:
.LBB5_2:
	.loc	5 515 1
	retq
.LBB5_3:
.Ltmp44:
	.loc	9 119 14
	movl	$368, %esi
	movl	$16, %edx
	jmpq	*__rust_dealloc@GOTPCREL(%rip)
.Ltmp45:
.Lfunc_end5:
	.size	_ZN4core3ptr50drop_in_place$LT$rand..rngs..thread..ThreadRng$GT$17hff8866d097a63c5aE, .Lfunc_end5-_ZN4core3ptr50drop_in_place$LT$rand..rngs..thread..ThreadRng$GT$17hff8866d097a63c5aE
	.cfi_endproc
	.file	15 "/rustc/9b00956e56009bab2aa15d7bff10916599e3d6d6/library/core/src/mem" "mod.rs"
	.file	16 "/rustc/9b00956e56009bab2aa15d7bff10916599e3d6d6/library/core/src" "cell.rs"

	.section	".text._ZN4core3ptr65drop_in_place$LT$alloc..vec..Vec$LT$alloc..string..String$GT$$GT$17h8f44ff975b8da179E","ax",@progbits
	.p2align	4, 0x90
	.type	_ZN4core3ptr65drop_in_place$LT$alloc..vec..Vec$LT$alloc..string..String$GT$$GT$17h8f44ff975b8da179E,@function
_ZN4core3ptr65drop_in_place$LT$alloc..vec..Vec$LT$alloc..string..String$GT$$GT$17h8f44ff975b8da179E:
.Lfunc_begin6:
	.loc	5 515 0
	.cfi_startproc
	pushq	%r15
	.cfi_def_cfa_offset 16
	pushq	%r14
	.cfi_def_cfa_offset 24
	pushq	%r13
	.cfi_def_cfa_offset 32
	pushq	%r12
	.cfi_def_cfa_offset 40
	pushq	%rbx
	.cfi_def_cfa_offset 48
	.cfi_offset %rbx, -48
	.cfi_offset %r12, -40
	.cfi_offset %r13, -32
	.cfi_offset %r14, -24
	.cfi_offset %r15, -16
	movq	%rdi, %r14
.Ltmp46:
	.loc	5 515 1 prologue_end
	movq	8(%rdi), %rbx
	movq	16(%rdi), %r15
.Ltmp47:
	.loc	5 515 1 is_stmt 0
	testq	%r15, %r15
	je	.LBB6_5
.Ltmp48:
	.loc	8 280 25 is_stmt 1
	leaq	8(%rbx), %r12
	movq	__rust_dealloc@GOTPCREL(%rip), %r13
	jmp	.LBB6_2
.Ltmp49:
	.p2align	4, 0x90
.LBB6_4:
	.loc	5 515 1
	addq	$24, %r12
	decq	%r15
	je	.LBB6_5
.Ltmp50:
.LBB6_2:
	movq	-8(%r12), %rsi
.Ltmp51:
	.loc	8 280 25
	testq	%rsi, %rsi
	je	.LBB6_4
.Ltmp52:
	.loc	5 515 1
	movq	(%r12), %rdi
.Ltmp53:
	.loc	9 119 14
	movl	$1, %edx
	callq	*%r13
.Ltmp54:
	.loc	9 0 14 is_stmt 0
	jmp	.LBB6_4
.Ltmp55:
.LBB6_5:
	.loc	5 515 1 is_stmt 1
	movq	(%r14), %rax
.Ltmp56:
	.loc	8 280 25
	testq	%rax, %rax
	je	.LBB6_6
.Ltmp57:
	.loc	10 1281 5
	shlq	$3, %rax
.Ltmp58:
	leaq	(%rax,%rax,2), %rsi
.Ltmp59:
	.loc	9 119 14
	movl	$8, %edx
	movq	%rbx, %rdi
	.loc	9 119 14 epilogue_begin is_stmt 0
	popq	%rbx
.Ltmp60:
	.cfi_def_cfa_offset 40
	popq	%r12
	.cfi_def_cfa_offset 32
	popq	%r13
	.cfi_def_cfa_offset 24
	popq	%r14
.Ltmp61:
	.cfi_def_cfa_offset 16
	popq	%r15
	.cfi_def_cfa_offset 8
	jmpq	*__rust_dealloc@GOTPCREL(%rip)
.Ltmp62:
.LBB6_6:
	.cfi_def_cfa_offset 48
	.loc	5 515 1 epilogue_begin is_stmt 1
	popq	%rbx
	.cfi_def_cfa_offset 40
	popq	%r12
	.cfi_def_cfa_offset 32
	popq	%r13
	.cfi_def_cfa_offset 24
	popq	%r14
.Ltmp63:
	.cfi_def_cfa_offset 16
	popq	%r15
	.cfi_def_cfa_offset 8
	retq
.Ltmp64:
.Lfunc_end6:
	.size	_ZN4core3ptr65drop_in_place$LT$alloc..vec..Vec$LT$alloc..string..String$GT$$GT$17h8f44ff975b8da179E, .Lfunc_end6-_ZN4core3ptr65drop_in_place$LT$alloc..vec..Vec$LT$alloc..string..String$GT$$GT$17h8f44ff975b8da179E
	.cfi_endproc
	.file	17 "/rustc/9b00956e56009bab2aa15d7bff10916599e3d6d6/library/alloc/src/vec" "mod.rs"

	.section	".text._ZN4core3ptr85drop_in_place$LT$std..rt..lang_start$LT$$LP$$RP$$GT$..$u7b$$u7b$closure$u7d$$u7d$$GT$17hb2d11cf6b88fe7c4E","ax",@progbits
	.p2align	4, 0x90
	.type	_ZN4core3ptr85drop_in_place$LT$std..rt..lang_start$LT$$LP$$RP$$GT$..$u7b$$u7b$closure$u7d$$u7d$$GT$17hb2d11cf6b88fe7c4E,@function
_ZN4core3ptr85drop_in_place$LT$std..rt..lang_start$LT$$LP$$RP$$GT$..$u7b$$u7b$closure$u7d$$u7d$$GT$17hb2d11cf6b88fe7c4E:
.Lfunc_begin7:
	.cfi_startproc
	.loc	5 515 1 prologue_end
	retq
.Ltmp65:
.Lfunc_end7:
	.size	_ZN4core3ptr85drop_in_place$LT$std..rt..lang_start$LT$$LP$$RP$$GT$..$u7b$$u7b$closure$u7d$$u7d$$GT$17hb2d11cf6b88fe7c4E, .Lfunc_end7-_ZN4core3ptr85drop_in_place$LT$std..rt..lang_start$LT$$LP$$RP$$GT$..$u7b$$u7b$closure$u7d$$u7d$$GT$17hb2d11cf6b88fe7c4E
	.cfi_endproc

	.section	".text._ZN4rand4rngs7adapter9reseeding29ReseedingCore$LT$R$C$Rsdr$GT$19reseed_and_generate17ha726589ac268690eE","ax",@progbits
	.p2align	4, 0x90
	.type	_ZN4rand4rngs7adapter9reseeding29ReseedingCore$LT$R$C$Rsdr$GT$19reseed_and_generate17ha726589ac268690eE,@function
_ZN4rand4rngs7adapter9reseeding29ReseedingCore$LT$R$C$Rsdr$GT$19reseed_and_generate17ha726589ac268690eE:
.Lfunc_begin8:
	.file	18 "/home/declan/.cargo/registry/src/index.crates.io-6f17d22bba15001f/rand-0.8.5/src/rngs/adapter" "reseeding.rs"
	.loc	18 241 0
	.cfi_startproc
	.cfi_personality 155, DW.ref.rust_eh_personality
	.cfi_lsda 27, .Lexception0
	pushq	%r15
	.cfi_def_cfa_offset 16
	pushq	%r14
	.cfi_def_cfa_offset 24
	pushq	%r13
	.cfi_def_cfa_offset 32
	pushq	%r12
	.cfi_def_cfa_offset 40
	pushq	%rbx
	.cfi_def_cfa_offset 48
	subq	$160, %rsp
	.cfi_def_cfa_offset 208
	.cfi_offset %rbx, -48
	.cfi_offset %r12, -40
	.cfi_offset %r13, -32
	.cfi_offset %r14, -24
	.cfi_offset %r15, -16
	movq	%rdx, %r15
	movq	%rsi, %rbx
	movq	%rdi, %r14
.Ltmp69:
	.loc	18 220 21 prologue_end
	addq	$72, %rdi
.Ltmp70:
	.file	19 "/rustc/9b00956e56009bab2aa15d7bff10916599e3d6d6/library/core/src/array" "mod.rs"
	.loc	19 440 17
	xorps	%xmm0, %xmm0
	movaps	%xmm0, 16(%rsp)
	movaps	%xmm0, (%rsp)
.Ltmp71:
	.loc	19 0 17 is_stmt 0
	movq	%rsp, %rsi
.Ltmp72:
	.file	20 "/home/declan/.cargo/registry/src/index.crates.io-6f17d22bba15001f/rand_core-0.6.4/src" "lib.rs"
	.loc	20 442 9 is_stmt 1
	movl	$32, %edx
.Ltmp73:
	callq	*_ZN59_$LT$rand_core..os..OsRng$u20$as$u20$rand_core..RngCore$GT$14try_fill_bytes17h5c0117a5fd7c9a96E@GOTPCREL(%rip)
.Ltmp74:
	.loc	20 392 9
	testq	%rax, %rax
	je	.LBB8_1
.Ltmp75:
.Ltmp66:
	.loc	18 220 9
	movq	%rax, %r12
	movq	%rdx, %r13
.Ltmp76:
	.loc	5 515 1
	movq	%rax, %rdi
	callq	*(%rdx)
.Ltmp67:
.Ltmp77:
	.loc	15 394 14
	movq	8(%r13), %rsi
.Ltmp78:
	.file	21 "/rustc/9b00956e56009bab2aa15d7bff10916599e3d6d6/library/alloc/src" "boxed.rs"
	.loc	21 1247 16
	testq	%rsi, %rsi
	je	.LBB8_8
.Ltmp79:
	.loc	21 0 0 is_stmt 0
	movq	16(%r13), %rdx
.Ltmp80:
	.loc	9 119 14 is_stmt 1
	movq	%r12, %rdi
	callq	*__rust_dealloc@GOTPCREL(%rip)
.Ltmp81:
	.loc	9 0 14 is_stmt 0
	jmp	.LBB8_8
.Ltmp82:
.LBB8_1:
	.loc	20 393 28 is_stmt 1
	movaps	(%rsp), %xmm0
	movaps	16(%rsp), %xmm1
	movups	%xmm1, 144(%rsp)
	movups	%xmm0, 128(%rsp)
.Ltmp83:
	.file	22 "/home/declan/.cargo/registry/src/index.crates.io-6f17d22bba15001f/rand_chacha-0.3.1/src" "guts.rs"
	.loc	22 73 9
	leaq	.L__unnamed_2(%rip), %rdx
.Ltmp84:
	.loc	22 0 9 is_stmt 0
	leaq	80(%rsp), %rdi
	leaq	128(%rsp), %rsi
	.loc	22 73 9
	movl	$8, %ecx
	callq	*_ZN11rand_chacha4guts11init_chacha17h172f9da85c2a76ecE@GOTPCREL(%rip)
.Ltmp85:
	.loc	20 393 9 is_stmt 1
	movq	80(%rsp), %rax
.Ltmp86:
	movq	120(%rsp), %rcx
	movq	%rcx, 64(%rsp)
	movups	104(%rsp), %xmm0
	movaps	%xmm0, 48(%rsp)
	movups	88(%rsp), %xmm0
	movaps	%xmm0, 32(%rsp)
.Ltmp87:
	.loc	18 221 39
	movq	48(%r14), %rcx
	.loc	18 221 13 is_stmt 0
	movq	%rcx, 56(%r14)
	.loc	18 222 13 is_stmt 1
	movq	%rax, (%r14)
	movaps	32(%rsp), %xmm0
	movups	%xmm0, 8(%r14)
	movaps	48(%rsp), %xmm0
	movups	%xmm0, 24(%r14)
	movq	64(%rsp), %rax
.Ltmp88:
	movq	%rax, 40(%r14)
.Ltmp89:
.LBB8_8:
	.loc	18 257 9
	movq	%r15, 64(%r14)
	movq	$-256, %rax
	.loc	18 259 35
	addq	48(%r14), %rax
	.loc	18 259 9 is_stmt 0
	movq	%rax, 56(%r14)
.Ltmp90:
	.loc	22 85 9 is_stmt 1
	movq	%r14, %rdi
	movl	$6, %esi
	movq	%rbx, %rdx
	callq	*_ZN11rand_chacha4guts11refill_wide17ha90b8f4cf0dc3164E@GOTPCREL(%rip)
.Ltmp91:
	.loc	18 261 6 epilogue_begin
	addq	$160, %rsp
	.cfi_def_cfa_offset 48
	popq	%rbx
.Ltmp92:
	.cfi_def_cfa_offset 40
	popq	%r12
	.cfi_def_cfa_offset 32
	popq	%r13
	.cfi_def_cfa_offset 24
	popq	%r14
.Ltmp93:
	.cfi_def_cfa_offset 16
	popq	%r15
.Ltmp94:
	.cfi_def_cfa_offset 8
	retq
.Ltmp95:
.LBB8_2:
	.cfi_def_cfa_offset 208
.Ltmp68:
	.loc	18 0 6 is_stmt 0
	movq	%rax, %rbx
.Ltmp96:
	.loc	15 394 14 is_stmt 1
	movq	8(%r13), %rsi
.Ltmp97:
	.loc	21 1247 16
	testq	%rsi, %rsi
	je	.LBB8_4
.Ltmp98:
	.loc	21 0 0 is_stmt 0
	movq	16(%r13), %rdx
.Ltmp99:
	.loc	9 119 14 is_stmt 1
	movq	%r12, %rdi
	callq	*__rust_dealloc@GOTPCREL(%rip)
.Ltmp100:
.LBB8_4:
	.loc	9 0 14 is_stmt 0
	movq	%rbx, %rdi
	callq	_Unwind_Resume@PLT
.Lfunc_end8:
	.size	_ZN4rand4rngs7adapter9reseeding29ReseedingCore$LT$R$C$Rsdr$GT$19reseed_and_generate17ha726589ac268690eE, .Lfunc_end8-_ZN4rand4rngs7adapter9reseeding29ReseedingCore$LT$R$C$Rsdr$GT$19reseed_and_generate17ha726589ac268690eE
	.cfi_endproc
	.file	23 "/rustc/9b00956e56009bab2aa15d7bff10916599e3d6d6/library/core/src/alloc" "layout.rs"
	.file	24 "/home/declan/.cargo/registry/src/index.crates.io-6f17d22bba15001f/rand_chacha-0.3.1/src" "chacha.rs"
	.file	25 "/rustc/9b00956e56009bab2aa15d7bff10916599e3d6d6/library/core/src" "result.rs"
	.section	".gcc_except_table._ZN4rand4rngs7adapter9reseeding29ReseedingCore$LT$R$C$Rsdr$GT$19reseed_and_generate17ha726589ac268690eE","a",@progbits
	.p2align	2, 0x0
GCC_except_table8:
.Lexception0:
	.byte	255
	.byte	255
	.byte	1
	.uleb128 .Lcst_end0-.Lcst_begin0
.Lcst_begin0:
	.uleb128 .Lfunc_begin8-.Lfunc_begin8
	.uleb128 .Ltmp66-.Lfunc_begin8
	.byte	0
	.byte	0
	.uleb128 .Ltmp66-.Lfunc_begin8
	.uleb128 .Ltmp67-.Ltmp66
	.uleb128 .Ltmp68-.Lfunc_begin8
	.byte	0
	.uleb128 .Ltmp67-.Lfunc_begin8
	.uleb128 .Lfunc_end8-.Ltmp67
	.byte	0
	.byte	0
.Lcst_end0:
	.p2align	2, 0x0

	.section	.text._ZN5alloc7raw_vec11finish_grow17h7eba675496ecd0d9E,"ax",@progbits
	.p2align	4, 0x90
	.type	_ZN5alloc7raw_vec11finish_grow17h7eba675496ecd0d9E,@function
_ZN5alloc7raw_vec11finish_grow17h7eba675496ecd0d9E:
.Lfunc_begin9:
	.loc	8 524 0 is_stmt 1
	.cfi_startproc
	pushq	%r15
	.cfi_def_cfa_offset 16
	pushq	%r14
	.cfi_def_cfa_offset 24
	pushq	%rbx
	.cfi_def_cfa_offset 32
	.cfi_offset %rbx, -32
	.cfi_offset %r14, -24
	.cfi_offset %r15, -16
	movq	%rdi, %rbx
.Ltmp101:
	.loc	25 827 15 prologue_end
	testq	%rsi, %rsi
	.loc	25 827 9 is_stmt 0
	je	.LBB9_6
.Ltmp102:
	.loc	25 0 9
	movq	%rdx, %r14
	movq	%rsi, %r15
.Ltmp103:
	.loc	8 537 25 is_stmt 1
	cmpq	$0, 8(%rcx)
	je	.LBB9_7
.Ltmp104:
	.loc	8 537 36 is_stmt 0
	movq	16(%rcx), %rsi
.Ltmp105:
	.loc	9 204 9 is_stmt 1
	testq	%rsi, %rsi
.Ltmp106:
	je	.LBB9_7
.Ltmp107:
	.loc	8 0 0 is_stmt 0
	movq	(%rcx), %rdi
.Ltmp108:
	.loc	9 138 14 is_stmt 1
	movq	%r15, %rdx
	movq	%r14, %rcx
.Ltmp109:
	callq	*__rust_realloc@GOTPCREL(%rip)
.Ltmp110:
	.loc	25 827 15
	testq	%rax, %rax
	.loc	25 827 9 is_stmt 0
	je	.LBB9_4
.Ltmp111:
.LBB9_11:
	.loc	25 828 22 is_stmt 1
	movq	%rax, 8(%rbx)
	movq	%r14, 16(%rbx)
	xorl	%eax, %eax
.Ltmp112:
	.loc	25 0 22 is_stmt 0
	jmp	.LBB9_12
.Ltmp113:
.LBB9_7:
	testq	%r14, %r14
	je	.LBB9_8
.Ltmp114:
	movq	__rust_no_alloc_shim_is_unstable@GOTPCREL(%rip), %rax
	movzbl	(%rax), %eax
	movq	%r14, %rdi
	movq	%r15, %rsi
	callq	*__rust_alloc@GOTPCREL(%rip)
.Ltmp115:
	.loc	25 827 15 is_stmt 1
	testq	%rax, %rax
	.loc	25 827 9 is_stmt 0
	jne	.LBB9_11
.Ltmp116:
.LBB9_4:
	.loc	25 829 23 is_stmt 1
	movq	%r15, 8(%rbx)
	movq	%r14, 16(%rbx)
	jmp	.LBB9_5
.Ltmp117:
.LBB9_6:
	.loc	25 1964 23
	movq	$0, 8(%rbx)
.Ltmp118:
.LBB9_5:
	.loc	25 0 23 is_stmt 0
	movl	$1, %eax
.Ltmp119:
.LBB9_12:
	movq	%rax, (%rbx)
	.loc	8 549 2 epilogue_begin is_stmt 1
	popq	%rbx
	.cfi_def_cfa_offset 24
	popq	%r14
	.cfi_def_cfa_offset 16
	popq	%r15
	.cfi_def_cfa_offset 8
	retq
.Ltmp120:
.LBB9_8:
	.cfi_def_cfa_offset 32
	.loc	8 0 2 is_stmt 0
	movq	%r15, %rax
.Ltmp121:
	.loc	25 827 15 is_stmt 1
	testq	%rax, %rax
	jne	.LBB9_11
	jmp	.LBB9_4
.Ltmp122:
.Lfunc_end9:
	.size	_ZN5alloc7raw_vec11finish_grow17h7eba675496ecd0d9E, .Lfunc_end9-_ZN5alloc7raw_vec11finish_grow17h7eba675496ecd0d9E
	.cfi_endproc

	.section	".text.unlikely._ZN5alloc7raw_vec19RawVec$LT$T$C$A$GT$7reserve21do_reserve_and_handle17h3ffd46a16a6fbc49E","ax",@progbits
	.p2align	4, 0x90
	.type	_ZN5alloc7raw_vec19RawVec$LT$T$C$A$GT$7reserve21do_reserve_and_handle17h3ffd46a16a6fbc49E,@function
_ZN5alloc7raw_vec19RawVec$LT$T$C$A$GT$7reserve21do_reserve_and_handle17h3ffd46a16a6fbc49E:
.Lfunc_begin10:
	.loc	8 324 0
	.cfi_startproc
	pushq	%r14
	.cfi_def_cfa_offset 16
	pushq	%rbx
	.cfi_def_cfa_offset 24
	subq	$56, %rsp
	.cfi_def_cfa_offset 80
	.cfi_offset %rbx, -24
	.cfi_offset %r14, -16
	movq	%rsi, %rax
.Ltmp123:
	.loc	10 1281 5 prologue_end
	addq	%rdx, %rax
.Ltmp124:
	.loc	10 1281 5 is_stmt 0
	jb	.LBB10_8
.Ltmp125:
	.loc	10 0 5
	movq	%rdi, %rbx
.Ltmp126:
	.loc	8 451 28 is_stmt 1
	movq	(%rdi), %rcx
	leaq	(%rcx,%rcx), %rdx
.Ltmp127:
	.file	26 "/rustc/9b00956e56009bab2aa15d7bff10916599e3d6d6/library/core/src" "cmp.rs"
	.loc	26 0 0 is_stmt 0
	cmpq	%rax, %rdx
	cmovaq	%rdx, %rax
.Ltmp128:
	movabsq	$384307168202282326, %rdx
.Ltmp129:
	xorl	%esi, %esi
.Ltmp130:
	cmpq	%rdx, %rax
	setb	%sil
.Ltmp131:
	cmpq	$5, %rax
	movl	$4, %r14d
	cmovaeq	%rax, %r14
.Ltmp132:
	.loc	23 449 37 is_stmt 1
	leaq	(,%r14,8), %rax
.Ltmp133:
	leaq	(%rax,%rax,2), %rdx
.Ltmp134:
	shll	$3, %esi
.Ltmp135:
	.loc	8 280 25
	testq	%rcx, %rcx
	je	.LBB10_2
.Ltmp136:
	.loc	8 457 43
	movq	8(%rbx), %rax
.Ltmp137:
	.loc	10 1281 5
	shlq	$3, %rcx
.Ltmp138:
	leaq	(%rcx,%rcx,2), %rcx
.Ltmp139:
	.loc	8 292 17
	movq	%rax, 32(%rsp)
	movq	%rcx, 48(%rsp)
	movl	$8, %eax
	jmp	.LBB10_4
.Ltmp140:
.LBB10_2:
	.loc	8 0 17 is_stmt 0
	xorl	%eax, %eax
.Ltmp141:
.LBB10_4:
	movq	%rax, 40(%rsp)
	leaq	8(%rsp), %rdi
	leaq	32(%rsp), %rcx
.Ltmp142:
	.loc	8 457 19 is_stmt 1
	callq	_ZN5alloc7raw_vec11finish_grow17h7eba675496ecd0d9E
.Ltmp143:
	.loc	25 1951 9
	cmpq	$0, 8(%rsp)
	jne	.LBB10_5
.Ltmp144:
	.loc	25 1952 16
	movq	16(%rsp), %rax
.Ltmp145:
	.loc	8 425 9
	movq	%rax, 8(%rbx)
	.loc	8 426 9
	movq	%r14, (%rbx)
.Ltmp146:
	.loc	8 330 10 epilogue_begin
	addq	$56, %rsp
	.cfi_def_cfa_offset 24
	popq	%rbx
.Ltmp147:
	.cfi_def_cfa_offset 16
	popq	%r14
.Ltmp148:
	.cfi_def_cfa_offset 8
	retq
.Ltmp149:
.LBB10_5:
	.cfi_def_cfa_offset 80
	.loc	25 1953 17
	movq	16(%rsp), %rdi
.Ltmp150:
	.loc	25 827 9
	testq	%rdi, %rdi
	jne	.LBB10_6
.Ltmp151:
.LBB10_8:
	.loc	8 566 34
	callq	*_ZN5alloc7raw_vec17capacity_overflow17h7ec064f2e7244a51E@GOTPCREL(%rip)
.Ltmp152:
.LBB10_6:
	.loc	8 329 0
	movq	24(%rsp), %rsi
.Ltmp153:
	.loc	8 567 43
	callq	*_ZN5alloc5alloc18handle_alloc_error17h59557ef4a43cd5a6E@GOTPCREL(%rip)
.Ltmp154:
.Lfunc_end10:
	.size	_ZN5alloc7raw_vec19RawVec$LT$T$C$A$GT$7reserve21do_reserve_and_handle17h3ffd46a16a6fbc49E, .Lfunc_end10-_ZN5alloc7raw_vec19RawVec$LT$T$C$A$GT$7reserve21do_reserve_and_handle17h3ffd46a16a6fbc49E
	.cfi_endproc

	.section	".text.unlikely._ZN5alloc7raw_vec19RawVec$LT$T$C$A$GT$7reserve21do_reserve_and_handle17h4c785d08221ccc72E","ax",@progbits
	.p2align	4, 0x90
	.type	_ZN5alloc7raw_vec19RawVec$LT$T$C$A$GT$7reserve21do_reserve_and_handle17h4c785d08221ccc72E,@function
_ZN5alloc7raw_vec19RawVec$LT$T$C$A$GT$7reserve21do_reserve_and_handle17h4c785d08221ccc72E:
.Lfunc_begin11:
	.loc	8 324 0
	.cfi_startproc
	pushq	%r14
	.cfi_def_cfa_offset 16
	pushq	%rbx
	.cfi_def_cfa_offset 24
	subq	$56, %rsp
	.cfi_def_cfa_offset 80
	.cfi_offset %rbx, -24
	.cfi_offset %r14, -16
.Ltmp155:
	.loc	10 1281 5 prologue_end
	addq	%rdx, %rsi
.Ltmp156:
	.loc	10 1281 5 is_stmt 0
	jb	.LBB11_8
.Ltmp157:
	.loc	10 0 5
	movq	%rdi, %rbx
.Ltmp158:
	.loc	8 451 28 is_stmt 1
	movq	(%rdi), %rax
	leaq	(%rax,%rax), %rcx
.Ltmp159:
	.loc	26 0 0 is_stmt 0
	cmpq	%rsi, %rcx
	cmovaq	%rcx, %rsi
.Ltmp160:
	cmpq	$9, %rsi
	movl	$8, %r14d
	cmovaeq	%rsi, %r14
.Ltmp161:
	.loc	23 449 37 is_stmt 1
	movq	%r14, %rsi
.Ltmp162:
	notq	%rsi
	shrq	$63, %rsi
.Ltmp163:
	.loc	8 280 25
	testq	%rax, %rax
	je	.LBB11_2
.Ltmp164:
	.loc	8 457 43
	movq	8(%rbx), %rcx
.Ltmp165:
	.loc	8 292 17
	movq	%rcx, 32(%rsp)
	movq	%rax, 48(%rsp)
	movl	$1, %eax
.Ltmp166:
	.loc	8 0 17 is_stmt 0
	jmp	.LBB11_4
.Ltmp167:
.LBB11_2:
	xorl	%eax, %eax
.Ltmp168:
.LBB11_4:
	movq	%rax, 40(%rsp)
	leaq	8(%rsp), %rdi
	leaq	32(%rsp), %rcx
.Ltmp169:
	.loc	8 457 19 is_stmt 1
	movq	%r14, %rdx
.Ltmp170:
	callq	_ZN5alloc7raw_vec11finish_grow17h7eba675496ecd0d9E
.Ltmp171:
	.loc	25 1951 9
	cmpq	$0, 8(%rsp)
	jne	.LBB11_5
.Ltmp172:
	.loc	25 1952 16
	movq	16(%rsp), %rax
.Ltmp173:
	.loc	8 425 9
	movq	%rax, 8(%rbx)
	.loc	8 426 9
	movq	%r14, (%rbx)
.Ltmp174:
	.loc	8 330 10 epilogue_begin
	addq	$56, %rsp
	.cfi_def_cfa_offset 24
	popq	%rbx
.Ltmp175:
	.cfi_def_cfa_offset 16
	popq	%r14
.Ltmp176:
	.cfi_def_cfa_offset 8
	retq
.Ltmp177:
.LBB11_5:
	.cfi_def_cfa_offset 80
	.loc	25 1953 17
	movq	16(%rsp), %rdi
.Ltmp178:
	.loc	25 827 9
	testq	%rdi, %rdi
	jne	.LBB11_6
.Ltmp179:
.LBB11_8:
	.loc	8 566 34
	callq	*_ZN5alloc7raw_vec17capacity_overflow17h7ec064f2e7244a51E@GOTPCREL(%rip)
.Ltmp180:
.LBB11_6:
	.loc	8 329 0
	movq	24(%rsp), %rsi
.Ltmp181:
	.loc	8 567 43
	callq	*_ZN5alloc5alloc18handle_alloc_error17h59557ef4a43cd5a6E@GOTPCREL(%rip)
.Ltmp182:
.Lfunc_end11:
	.size	_ZN5alloc7raw_vec19RawVec$LT$T$C$A$GT$7reserve21do_reserve_and_handle17h4c785d08221ccc72E, .Lfunc_end11-_ZN5alloc7raw_vec19RawVec$LT$T$C$A$GT$7reserve21do_reserve_and_handle17h4c785d08221ccc72E
	.cfi_endproc

	.section	".text._ZN60_$LT$alloc..string..String$u20$as$u20$core..fmt..Display$GT$3fmt17h24e91307fb5a420aE","ax",@progbits
	.p2align	4, 0x90
	.type	_ZN60_$LT$alloc..string..String$u20$as$u20$core..fmt..Display$GT$3fmt17h24e91307fb5a420aE,@function
_ZN60_$LT$alloc..string..String$u20$as$u20$core..fmt..Display$GT$3fmt17h24e91307fb5a420aE:
.Lfunc_begin12:
	.file	27 "/rustc/9b00956e56009bab2aa15d7bff10916599e3d6d6/library/alloc/src" "string.rs"
	.loc	27 2366 0
	.cfi_startproc
	movq	%rsi, %rdx
.Ltmp183:
	.loc	27 2478 43 prologue_end
	movq	8(%rdi), %rax
	movq	16(%rdi), %rsi
.Ltmp184:
	.loc	27 2367 9
	movq	%rax, %rdi
.Ltmp185:
	jmpq	*_ZN42_$LT$str$u20$as$u20$core..fmt..Display$GT$3fmt17hf70e70a51de004b1E@GOTPCREL(%rip)
.Ltmp186:
.Lfunc_end12:
	.size	_ZN60_$LT$alloc..string..String$u20$as$u20$core..fmt..Display$GT$3fmt17h24e91307fb5a420aE, .Lfunc_end12-_ZN60_$LT$alloc..string..String$u20$as$u20$core..fmt..Display$GT$3fmt17h24e91307fb5a420aE
	.cfi_endproc

	.section	.text._ZN2rs4main17h49539450424bf0bfE,"ax",@progbits
	.p2align	4, 0x90
	.type	_ZN2rs4main17h49539450424bf0bfE,@function
_ZN2rs4main17h49539450424bf0bfE:
.Lfunc_begin13:
	.file	28 "/home/declan/Documents/c_scripts/pixels_to_string_benchmarking/rs" "src/main.rs"
	.loc	28 63 0
	.cfi_startproc
	.cfi_personality 155, DW.ref.rust_eh_personality
	.cfi_lsda 27, .Lexception1
	pushq	%rbp
	.cfi_def_cfa_offset 16
	pushq	%r15
	.cfi_def_cfa_offset 24
	pushq	%r14
	.cfi_def_cfa_offset 32
	pushq	%r13
	.cfi_def_cfa_offset 40
	pushq	%r12
	.cfi_def_cfa_offset 48
	pushq	%rbx
	.cfi_def_cfa_offset 56
	subq	$264, %rsp
	.cfi_def_cfa_offset 320
	.cfi_offset %rbx, -56
	.cfi_offset %r12, -48
	.cfi_offset %r13, -40
	.cfi_offset %r14, -32
	.cfi_offset %r15, -24
	.cfi_offset %rbp, -16
	leaq	144(%rsp), %rbx
.Ltmp269:
	.loc	28 64 29 prologue_end
	movq	%rbx, %rdi
	callq	*_ZN3std3env4args17h377a659c89f76567E@GOTPCREL(%rip)
.Ltmp270:
.Ltmp187:
	.loc	28 0 29 is_stmt 0
	leaq	104(%rsp), %rdi
.Ltmp271:
	.file	29 "/rustc/9b00956e56009bab2aa15d7bff10916599e3d6d6/library/alloc/src/vec" "spec_from_iter_nested.rs"
	.loc	29 26 32 is_stmt 1
	movq	%rbx, %rsi
	callq	*_ZN73_$LT$std..env..Args$u20$as$u20$core..iter..traits..iterator..Iterator$GT$4next17h59c4ec3b1f47ecbaE@GOTPCREL(%rip)
.Ltmp188:
.Ltmp272:
	.loc	29 0 32 is_stmt 0
	movabsq	$-9223372036854775808, %rax
	.loc	29 26 32
	movq	104(%rsp), %r14
	cmpq	%rax, %r14
	.loc	29 26 26
	jne	.LBB13_11
.Ltmp273:
	.loc	6 444 32 is_stmt 1
	movq	152(%rsp), %r14
	movq	168(%rsp), %rcx
.Ltmp274:
	.loc	5 515 1
	movq	%rcx, %rax
	subq	%r14, %rax
	movabsq	$-6148914691236517205, %rdx
.Ltmp275:
	.loc	7 842 18
	mulq	%rdx
.Ltmp276:
	.loc	17 423 9
	movq	$0, 224(%rsp)
	movq	$8, 232(%rsp)
	movq	$0, 240(%rsp)
.Ltmp277:
	.loc	5 515 1
	cmpq	%r14, %rcx
	je	.LBB13_7
.Ltmp278:
	.loc	6 444 0
	movq	%rdx, %rbx
	shrq	$4, %rbx
.Ltmp279:
	.loc	8 280 25
	addq	$8, %r14
.Ltmp280:
	.loc	8 0 25 is_stmt 0
	movq	__rust_dealloc@GOTPCREL(%rip), %r15
	jmp	.LBB13_4
.Ltmp281:
	.p2align	4, 0x90
.LBB13_6:
	.loc	5 515 1 is_stmt 1
	addq	$24, %r14
	decq	%rbx
	je	.LBB13_7
.Ltmp282:
.LBB13_4:
	movq	-8(%r14), %rsi
.Ltmp283:
	.loc	8 280 25
	testq	%rsi, %rsi
	je	.LBB13_6
.Ltmp284:
	.loc	5 515 1
	movq	(%r14), %rdi
.Ltmp285:
	.loc	9 119 14
	movl	$1, %edx
	callq	*%r15
.Ltmp286:
	.loc	9 0 14 is_stmt 0
	jmp	.LBB13_6
.Ltmp287:
.LBB13_11:
	.loc	29 28 18 is_stmt 1
	movq	112(%rsp), %r15
.Ltmp288:
	movq	120(%rsp), %r12
.Ltmp289:
.Ltmp190:
	.loc	29 0 18 is_stmt 0
	leaq	48(%rsp), %rdi
	leaq	144(%rsp), %rsi
.Ltmp290:
	.loc	29 29 34 is_stmt 1
	callq	*_ZN73_$LT$std..env..Args$u20$as$u20$core..iter..traits..iterator..Iterator$GT$9size_hint17he11bbeb52b406213E@GOTPCREL(%rip)
.Ltmp191:
.Ltmp291:
	.loc	29 29 22 is_stmt 0
	movq	48(%rsp), %rax
.Ltmp292:
	.loc	10 1281 5 is_stmt 1
	incq	%rax
.Ltmp293:
	.loc	10 0 5 is_stmt 0
	movq	$-1, %rcx
	.loc	10 1281 5
	cmovneq	%rax, %rcx
.Ltmp294:
	.loc	26 0 0
	cmpq	$5, %rcx
	movl	$4, %r13d
	cmovaeq	%rcx, %r13
.Ltmp295:
	movabsq	$384307168202282325, %rax
.Ltmp296:
	.loc	23 449 37 is_stmt 1
	cmpq	%rax, %rcx
.Ltmp297:
	.loc	8 211 26
	ja	.LBB13_15
.Ltmp298:
	.loc	8 0 0 is_stmt 0
	leaq	(,%r13,8), %rax
	leaq	(%rax,%rax,2), %rbx
.Ltmp299:
	.loc	5 1665 9 is_stmt 1
	movq	__rust_no_alloc_shim_is_unstable@GOTPCREL(%rip), %rax
.Ltmp300:
	movzbl	(%rax), %eax
.Ltmp301:
	.loc	9 100 9
	movl	$8, %esi
	movq	%rbx, %rdi
	callq	*__rust_alloc@GOTPCREL(%rip)
.Ltmp302:
	.loc	8 225 29
	testq	%rax, %rax
	.loc	8 225 23 is_stmt 0
	je	.LBB13_14
.Ltmp303:
	.loc	8 155 0 is_stmt 1
	movq	%rax, %rbp
.Ltmp304:
	.loc	5 1493 9
	movq	%r14, (%rax)
	movq	%r15, 8(%rax)
	movq	%r12, 16(%rax)
.Ltmp305:
	.loc	29 38 17
	movq	%r13, 192(%rsp)
	movq	%rax, 200(%rsp)
	movq	$1, 208(%rsp)
.Ltmp306:
	.loc	29 43 64
	movups	144(%rsp), %xmm0
	movups	160(%rsp), %xmm1
	movaps	%xmm1, 64(%rsp)
	movaps	%xmm0, 48(%rsp)
	movl	$1, %ebx
	movl	$40, %r14d
.Ltmp307:
	.loc	29 0 64 is_stmt 0
	jmp	.LBB13_18
.Ltmp308:
	.p2align	4, 0x90
.LBB13_24:
	.loc	5 1493 9 is_stmt 1
	movq	%r12, -16(%rbp,%r14)
	movq	%r13, -8(%rbp,%r14)
	movq	%r15, (%rbp,%r14)
.Ltmp309:
	.loc	17 2999 30
	incq	%rbx
.Ltmp310:
	.loc	17 1458 9
	movq	%rbx, 208(%rsp)
.Ltmp311:
	.loc	17 2988 9
	addq	$24, %r14
.Ltmp312:
.LBB13_18:
.Ltmp192:
	.loc	17 2988 35 is_stmt 0
	movq	%rsp, %rdi
	leaq	48(%rsp), %rsi
	callq	*_ZN73_$LT$std..env..Args$u20$as$u20$core..iter..traits..iterator..Iterator$GT$4next17h59c4ec3b1f47ecbaE@GOTPCREL(%rip)
.Ltmp193:
.Ltmp313:
	.loc	17 2988 19
	movq	(%rsp), %r12
	movabsq	$-9223372036854775808, %rax
	cmpq	%rax, %r12
	je	.LBB13_31
.Ltmp314:
	.loc	17 2988 24
	movq	8(%rsp), %r13
.Ltmp315:
	movq	16(%rsp), %r15
.Ltmp316:
	.loc	17 2990 16 is_stmt 1
	cmpq	192(%rsp), %rbx
	jne	.LBB13_24
.Ltmp317:
.Ltmp195:
	.loc	17 2991 34
	leaq	104(%rsp), %rdi
	leaq	48(%rsp), %rsi
	callq	*_ZN73_$LT$std..env..Args$u20$as$u20$core..iter..traits..iterator..Iterator$GT$9size_hint17he11bbeb52b406213E@GOTPCREL(%rip)
.Ltmp196:
.Ltmp318:
	.loc	17 2991 22 is_stmt 0
	movq	104(%rsp), %rdx
.Ltmp319:
	.loc	10 1281 5 is_stmt 1
	incq	%rdx
.Ltmp320:
	movq	$-1, %rax
	cmoveq	%rax, %rdx
.Ltmp321:
.Ltmp197:
	.loc	8 333 13
	leaq	192(%rsp), %rdi
	movq	%rbx, %rsi
	callq	_ZN5alloc7raw_vec19RawVec$LT$T$C$A$GT$7reserve21do_reserve_and_handle17h3ffd46a16a6fbc49E
.Ltmp322:
.Ltmp198:
	.loc	8 258 9
	movq	200(%rsp), %rbp
	jmp	.LBB13_24
.Ltmp323:
.LBB13_7:
	.loc	6 436 76
	movq	160(%rsp), %rax
.Ltmp324:
	.loc	8 280 25
	testq	%rax, %rax
	je	.LBB13_39
.Ltmp325:
	.loc	6 436 55
	movq	144(%rsp), %rdi
.Ltmp326:
	.loc	10 1281 5
	shlq	$3, %rax
.Ltmp327:
	leaq	(%rax,%rax,2), %rsi
.Ltmp328:
	.loc	9 119 14
	movl	$8, %edx
	callq	*__rust_dealloc@GOTPCREL(%rip)
.Ltmp329:
	.loc	9 0 14 is_stmt 0
	jmp	.LBB13_39
.Ltmp330:
.LBB13_31:
	.loc	6 444 32 is_stmt 1
	movq	56(%rsp), %r14
	movq	72(%rsp), %rcx
.Ltmp331:
	.loc	5 515 1
	movq	%rcx, %rax
	subq	%r14, %rax
	movabsq	$-6148914691236517205, %rdx
.Ltmp332:
	.loc	7 842 18
	mulq	%rdx
.Ltmp333:
	.loc	5 515 1
	cmpq	%r14, %rcx
	je	.LBB13_36
.Ltmp334:
	.loc	6 444 0
	movq	%rdx, %rbx
	shrq	$4, %rbx
.Ltmp335:
	.loc	8 280 25
	addq	$8, %r14
.Ltmp336:
	.loc	8 0 25 is_stmt 0
	movq	__rust_dealloc@GOTPCREL(%rip), %r15
	jmp	.LBB13_33
.Ltmp337:
	.p2align	4, 0x90
.LBB13_35:
	.loc	5 515 1 is_stmt 1
	addq	$24, %r14
	decq	%rbx
	je	.LBB13_36
.Ltmp338:
.LBB13_33:
	movq	-8(%r14), %rsi
.Ltmp339:
	.loc	8 280 25
	testq	%rsi, %rsi
	je	.LBB13_35
.Ltmp340:
	.loc	5 515 1
	movq	(%r14), %rdi
.Ltmp341:
	.loc	9 119 14
	movl	$1, %edx
	callq	*%r15
.Ltmp342:
	.loc	9 0 14 is_stmt 0
	jmp	.LBB13_35
.Ltmp343:
.LBB13_36:
	.loc	6 436 76 is_stmt 1
	movq	64(%rsp), %rax
.Ltmp344:
	.loc	8 280 25
	testq	%rax, %rax
	je	.LBB13_38
.Ltmp345:
	.loc	6 436 55
	movq	48(%rsp), %rdi
.Ltmp346:
	.loc	10 1281 5
	shlq	$3, %rax
.Ltmp347:
	leaq	(%rax,%rax,2), %rsi
.Ltmp348:
	.loc	9 119 14
	movl	$8, %edx
	callq	*__rust_dealloc@GOTPCREL(%rip)
.Ltmp349:
.LBB13_38:
	.loc	29 44 9
	movups	192(%rsp), %xmm0
	movaps	%xmm0, 224(%rsp)
	movq	208(%rsp), %rax
	movq	%rax, 240(%rsp)
.Ltmp350:
.LBB13_39:
	.loc	9 172 14
	movl	$4000000, %edi
	movl	$1, %esi
	callq	*__rust_alloc_zeroed@GOTPCREL(%rip)
.Ltmp351:
	.loc	9 0 14 is_stmt 0
	movq	%rax, 24(%rsp)
.Ltmp352:
	.loc	8 225 29 is_stmt 1
	testq	%rax, %rax
.Ltmp353:
	.loc	25 827 9
	je	.LBB13_40
.Ltmp354:
	.loc	28 68 8
	cmpq	$2, 240(%rsp)
	jb	.LBB13_93
.Ltmp355:
	.loc	28 69 19
	movq	232(%rsp), %rax
	.loc	28 69 15 is_stmt 0
	cmpq	$0, 40(%rax)
	je	.LBB13_55
.Ltmp356:
	movq	32(%rax), %rax
	.loc	28 69 9
	movzbl	(%rax), %eax
	cmpl	$114, %eax
	je	.LBB13_56
.Ltmp357:
	cmpl	$118, %eax
	jne	.LBB13_93
.Ltmp358:
	.loc	28 0 9
	xorl	%eax, %eax
	xorl	%ecx, %ecx
.Ltmp359:
	.p2align	4, 0x90
.LBB13_54:
	movq	24(%rsp), %rsi
.Ltmp360:
	.loc	28 80 21 is_stmt 1
	movb	%cl, 1(%rsi,%rax,4)
.Ltmp361:
	.loc	28 81 21
	movb	%cl, 2(%rsi,%rax,4)
.Ltmp362:
	.loc	28 82 21
	movb	%cl, 3(%rsi,%rax,4)
	.loc	28 84 25
	leal	1(%rcx), %edx
	.loc	28 84 21 is_stmt 0
	addb	$2, %cl
.Ltmp363:
	cmpb	$-1, %dl
	movzbl	%cl, %ecx
	movzbl	%dl, %edx
	cmovel	%ecx, %edx
.Ltmp364:
	.loc	28 80 21 is_stmt 1
	movb	%dl, 5(%rsi,%rax,4)
	.loc	28 81 21
	movb	%dl, 6(%rsi,%rax,4)
	.loc	28 82 21
	movb	%dl, 7(%rsi,%rax,4)
.Ltmp365:
	.loc	10 1157 5
	leaq	2(%rax), %rsi
.Ltmp366:
	.loc	28 84 25
	leal	1(%rdx), %eax
.Ltmp367:
	.loc	28 84 21 is_stmt 0
	addb	$2, %dl
.Ltmp368:
	cmpb	$-1, %al
	movzbl	%dl, %edx
	movzbl	%al, %ecx
	cmovel	%edx, %ecx
.Ltmp369:
	.loc	28 0 21
	movq	%rsi, %rax
.Ltmp370:
	.loc	26 1553 52 is_stmt 1
	cmpq	$1000000, %rsi
	jne	.LBB13_54
.Ltmp371:
.LBB13_93:
	.loc	5 1665 9
	movq	__rust_no_alloc_shim_is_unstable@GOTPCREL(%rip), %rax
.Ltmp372:
	movzbl	(%rax), %eax
.Ltmp373:
	.loc	5 0 9 is_stmt 0
	movl	$10, %r15d
.Ltmp374:
	.loc	9 100 9 is_stmt 1
	movl	$10, %edi
	movl	$1, %esi
	callq	*__rust_alloc@GOTPCREL(%rip)
.Ltmp375:
	.loc	8 225 29
	testq	%rax, %rax
.Ltmp376:
	.loc	8 225 23 is_stmt 0
	je	.LBB13_94
.Ltmp377:
	.loc	8 0 23
	movabsq	$4268060301791091483, %rcx
.Ltmp378:
	.file	30 "/rustc/9b00956e56009bab2aa15d7bff10916599e3d6d6/library/core/src" "intrinsics.rs"
	.loc	30 2987 14 is_stmt 1
	movq	%rcx, (%rax)
	movw	$27963, 8(%rax)
.Ltmp379:
	.loc	27 994 9
	movq	$10, (%rsp)
	movq	%rax, 32(%rsp)
.Ltmp380:
	movq	%rax, 8(%rsp)
	movq	$10, 16(%rsp)
	xorl	%r12d, %r12d
	movl	$10, %eax
	movq	%rax, 40(%rsp)
	movl	$10, %r13d
	xorl	%ecx, %ecx
	xorl	%edi, %edi
	xorl	%esi, %esi
	xorl	%edx, %edx
	xorl	%eax, %eax
	xorl	%r8d, %r8d
	jmp	.LBB13_126
.Ltmp381:
	.p2align	4, 0x90
.LBB13_107:
	.loc	27 0 9 is_stmt 0
	movl	220(%rsp), %r8d
.Ltmp382:
	.loc	26 1553 52 is_stmt 1
	cmpl	$1000, %r8d
.Ltmp383:
	.file	31 "/rustc/9b00956e56009bab2aa15d7bff10916599e3d6d6/library/core/src/iter" "range.rs"
	.loc	31 754 12
	je	.LBB13_108
.Ltmp384:
.LBB13_126:
	.loc	10 1157 5
	incl	%r8d
.Ltmp385:
	.loc	10 0 5 is_stmt 0
	movl	%r8d, 220(%rsp)
.Ltmp386:
	movl	$1000, %ebx
.Ltmp387:
	jmp	.LBB13_127
.Ltmp388:
	.p2align	4, 0x90
.LBB13_168:
	movq	%r13, %r15
	movl	132(%rsp), %eax
	movl	136(%rsp), %ecx
	movl	%ecx, %edx
	movl	140(%rsp), %ecx
	movl	%ecx, %esi
	movl	%r14d, %edi
	xorl	%ecx, %ecx
.Ltmp389:
.LBB13_169:
	.loc	28 53 13 is_stmt 1
	incq	%rcx
.Ltmp390:
	.loc	28 54 13
	incq	%r12
.Ltmp391:
	.loc	26 1553 52
	decl	%ebx
.Ltmp392:
	.loc	31 754 12
	je	.LBB13_107
.Ltmp393:
.LBB13_127:
	.loc	28 42 29
	cmpq	$999999, %r12
	ja	.LBB13_135
.Ltmp394:
	.loc	28 0 29 is_stmt 0
	movq	24(%rsp), %r8
	.loc	28 42 29
	movl	(%r8,%r12,4), %r14d
	.loc	28 42 13
	movl	%r14d, 192(%rsp)
.Ltmp395:
	.file	32 "/rustc/9b00956e56009bab2aa15d7bff10916599e3d6d6/library/core/src" "tuple.rs"
	.loc	32 36 38 is_stmt 1
	movl	%r14d, %r8d
	shrl	$8, %r8d
.Ltmp396:
	movl	%r14d, %r9d
	shrl	$16, %r9d
.Ltmp397:
	movl	%r14d, %r10d
	shrl	$24, %r10d
.Ltmp398:
	.loc	26 1471 52
	cmpb	%r14b, %dil
.Ltmp399:
	.loc	32 36 38
	jne	.LBB13_132
.Ltmp400:
	cmpb	%r8b, %sil
	jne	.LBB13_132
.Ltmp401:
	cmpb	%r9b, %dl
	jne	.LBB13_132
.Ltmp402:
	cmpb	%r10b, %al
	je	.LBB13_169
.Ltmp403:
.LBB13_132:
.Ltmp235:
	.loc	32 0 38 is_stmt 0
	movl	%r10d, 132(%rsp)
.Ltmp404:
	movl	%r9d, 136(%rsp)
.Ltmp405:
	movl	%r8d, 140(%rsp)
.Ltmp406:
	.loc	28 47 38 is_stmt 1
	movl	$1, %edx
	leaq	104(%rsp), %rdi
	leaq	.L__unnamed_3(%rip), %rsi
	callq	*_ZN5alloc3str21_$LT$impl$u20$str$GT$6repeat17ha5dddc19c44fbe26E@GOTPCREL(%rip)
.Ltmp407:
.Ltmp236:
	.loc	28 47 37 is_stmt 0
	movq	112(%rsp), %rax
	movq	%rax, 96(%rsp)
	movq	120(%rsp), %rbp
.Ltmp408:
	.loc	28 0 37
	movq	40(%rsp), %rax
.Ltmp409:
	.loc	10 1281 5 is_stmt 1
	subq	%r13, %rax
.Ltmp410:
	.loc	8 415 9
	cmpq	%rbp, %rax
.Ltmp411:
	.loc	8 332 12
	jae	.LBB13_134
.Ltmp412:
	.loc	10 1281 5
	addq	%rbp, %r13
.Ltmp413:
	.loc	10 1281 5 is_stmt 0
	jb	.LBB13_146
.Ltmp414:
	.loc	10 0 5
	movq	40(%rsp), %rax
.Ltmp415:
	.loc	8 451 28 is_stmt 1
	addq	%rax, %rax
.Ltmp416:
	.loc	26 0 0 is_stmt 0
	cmpq	%r13, %rax
	cmovaq	%rax, %r13
.Ltmp417:
	cmpq	$9, %r13
	jae	.LBB13_141
.Ltmp418:
	movl	$8, %r13d
.Ltmp419:
.LBB13_141:
	movq	40(%rsp), %rcx
.Ltmp420:
	.loc	8 280 25 is_stmt 1
	testq	%rcx, %rcx
	je	.LBB13_142
.Ltmp421:
	.loc	8 0 25 is_stmt 0
	movq	32(%rsp), %rax
.Ltmp422:
	.loc	8 292 17 is_stmt 1
	movq	%rax, 48(%rsp)
	movq	%rcx, 64(%rsp)
	movl	$1, %eax
	jmp	.LBB13_144
.Ltmp423:
	.p2align	4, 0x90
.LBB13_134:
	.loc	8 0 17 is_stmt 0
	movq	%r13, %r15
.Ltmp424:
	movq	32(%rsp), %rdi
	jmp	.LBB13_149
.Ltmp425:
.LBB13_142:
	xorl	%eax, %eax
.Ltmp426:
.LBB13_144:
	movq	%r13, %rsi
	notq	%rsi
	shrq	$63, %rsi
.Ltmp427:
	movq	%rax, 56(%rsp)
.Ltmp428:
	.loc	8 457 19 is_stmt 1
	leaq	144(%rsp), %rdi
	movq	%r13, %rdx
	leaq	48(%rsp), %rcx
	callq	_ZN5alloc7raw_vec11finish_grow17h7eba675496ecd0d9E
.Ltmp429:
	.loc	25 1951 9
	cmpq	$0, 144(%rsp)
	jne	.LBB13_145
.Ltmp430:
	.loc	25 1952 16
	movq	152(%rsp), %rdi
.Ltmp431:
	.loc	8 425 9
	movq	%rdi, 8(%rsp)
	.loc	8 426 9
	movq	%r13, (%rsp)
.Ltmp432:
.LBB13_149:
	.file	33 "/rustc/9b00956e56009bab2aa15d7bff10916599e3d6d6/library/core/src/ptr" "mut_ptr.rs"
	.loc	33 1049 18
	addq	%r15, %rdi
.Ltmp433:
	.loc	33 0 18 is_stmt 0
	movq	96(%rsp), %r13
.Ltmp434:
	.loc	30 2987 14 is_stmt 1
	movq	%r13, %rsi
	movq	%rbp, %rdx
	callq	*memcpy@GOTPCREL(%rip)
.Ltmp435:
	.loc	17 2095 9
	addq	%rbp, %r15
.Ltmp436:
	movq	%r15, 16(%rsp)
.Ltmp437:
	.loc	28 47 58
	movq	104(%rsp), %rsi
.Ltmp438:
	.loc	8 280 25
	testq	%rsi, %rsi
	je	.LBB13_151
.Ltmp439:
	.loc	9 119 14
	movl	$1, %edx
	movq	%r13, %rdi
	callq	*__rust_dealloc@GOTPCREL(%rip)
.Ltmp440:
.LBB13_151:
	.loc	28 48 38
	leaq	193(%rsp), %rax
	movq	%rax, 144(%rsp)
	movq	_ZN4core3fmt3num3imp51_$LT$impl$u20$core..fmt..Display$u20$for$u20$u8$GT$3fmt17h490c0fc6ba035f61E@GOTPCREL(%rip), %rcx
	movq	%rcx, 152(%rsp)
	leaq	194(%rsp), %rax
	movq	%rax, 160(%rsp)
	movq	%rcx, 168(%rsp)
	leaq	195(%rsp), %rax
	movq	%rax, 176(%rsp)
	movq	%rcx, 184(%rsp)
.Ltmp441:
	.file	34 "/rustc/9b00956e56009bab2aa15d7bff10916599e3d6d6/library/alloc/src" "fmt.rs"
	.loc	34 637 47
	leaq	.L__unnamed_4(%rip), %rax
	movq	%rax, 48(%rsp)
	movq	$4, 56(%rsp)
	leaq	144(%rsp), %rax
	movq	%rax, 64(%rsp)
	movq	$3, 72(%rsp)
	movq	$0, 80(%rsp)
.Ltmp239:
	.loc	34 637 34 is_stmt 0
	leaq	104(%rsp), %rdi
	leaq	48(%rsp), %rsi
	callq	*_ZN5alloc3fmt6format12format_inner17h441875c9a7d1b4a9E@GOTPCREL(%rip)
.Ltmp442:
.Ltmp240:
	.loc	28 48 38 is_stmt 1
	movq	104(%rsp), %rax
	movq	%rax, 96(%rsp)
	movq	112(%rsp), %r13
	movq	120(%rsp), %rbp
.Ltmp443:
	.loc	8 271 44
	movq	(%rsp), %rcx
.Ltmp444:
	.loc	10 1281 5
	movq	%rcx, %rax
	subq	%r15, %rax
.Ltmp445:
	.loc	8 415 9
	cmpq	%rbp, %rax
	movq	%r13, 256(%rsp)
.Ltmp446:
	.loc	8 332 12
	jae	.LBB13_153
.Ltmp447:
	.loc	10 1281 5
	movq	%r15, %rax
	addq	%rbp, %rax
.Ltmp448:
	.loc	10 1281 5 is_stmt 0
	jb	.LBB13_164
.Ltmp449:
	.loc	10 0 5
	movq	%rcx, %rdx
.Ltmp450:
	.loc	8 451 28 is_stmt 1
	leaq	(%rcx,%rcx), %r13
.Ltmp451:
	.loc	26 0 0 is_stmt 0
	cmpq	%rax, %r13
	movq	%rax, 32(%rsp)
.Ltmp452:
	cmovbeq	%rax, %r13
.Ltmp453:
	cmpq	$9, %r13
	jae	.LBB13_159
.Ltmp454:
	movl	$8, %r13d
.Ltmp455:
.LBB13_159:
	.loc	8 280 25 is_stmt 1
	testq	%rdx, %rdx
	je	.LBB13_160
.Ltmp456:
	.loc	8 457 43
	movq	8(%rsp), %rax
.Ltmp457:
	.loc	8 292 17
	movq	%rax, 48(%rsp)
	movq	%rdx, 64(%rsp)
	movl	$1, %eax
	jmp	.LBB13_162
.Ltmp458:
	.p2align	4, 0x90
.LBB13_153:
	.loc	8 0 17 is_stmt 0
	movq	%rcx, 40(%rsp)
.Ltmp459:
	.loc	8 258 9 is_stmt 1
	movq	8(%rsp), %rax
.Ltmp460:
	.loc	17 2095 9
	leaq	(%r15,%rbp), %r13
	jmp	.LBB13_167
.Ltmp461:
.LBB13_160:
	.loc	17 0 9 is_stmt 0
	xorl	%eax, %eax
.Ltmp462:
.LBB13_162:
	movq	%r13, %rsi
	notq	%rsi
	shrq	$63, %rsi
.Ltmp463:
	movq	%rax, 56(%rsp)
.Ltmp464:
	.loc	8 457 19 is_stmt 1
	leaq	144(%rsp), %rdi
	movq	%r13, %rdx
	leaq	48(%rsp), %rcx
	callq	_ZN5alloc7raw_vec11finish_grow17h7eba675496ecd0d9E
.Ltmp465:
	.loc	25 1951 9
	cmpq	$0, 144(%rsp)
	jne	.LBB13_163
.Ltmp466:
	.loc	25 1952 16
	movq	152(%rsp), %rax
.Ltmp467:
	.loc	8 425 9
	movq	%rax, 8(%rsp)
	.loc	8 426 9
	movq	%r13, (%rsp)
	movq	%r13, 40(%rsp)
.Ltmp468:
	.loc	8 0 9 is_stmt 0
	movq	32(%rsp), %r13
.Ltmp469:
.LBB13_167:
	movq	%rax, 32(%rsp)
.Ltmp470:
	.loc	33 1049 18 is_stmt 1
	addq	%rax, %r15
.Ltmp471:
	.loc	30 2987 14
	movq	%r15, %rdi
	movq	256(%rsp), %r15
.Ltmp472:
	movq	%r15, %rsi
	movq	%rbp, %rdx
	callq	*memcpy@GOTPCREL(%rip)
.Ltmp473:
	.loc	17 2095 9
	movq	%r13, 16(%rsp)
.Ltmp474:
	.loc	17 0 9 is_stmt 0
	movq	96(%rsp), %rsi
.Ltmp475:
	.loc	8 280 25 is_stmt 1
	testq	%rsi, %rsi
	je	.LBB13_168
.Ltmp476:
	.loc	9 119 14
	movl	$1, %edx
	movq	%r15, %rdi
	callq	*__rust_dealloc@GOTPCREL(%rip)
	jmp	.LBB13_168
.Ltmp477:
.LBB13_108:
.Ltmp244:
	.loc	28 58 26
	leaq	.L__unnamed_3(%rip), %rsi
.Ltmp478:
	.loc	28 0 26 is_stmt 0
	leaq	48(%rsp), %rdi
.Ltmp479:
	.loc	28 58 26
	movl	$1, %edx
.Ltmp480:
	callq	*_ZN5alloc3str21_$LT$impl$u20$str$GT$6repeat17ha5dddc19c44fbe26E@GOTPCREL(%rip)
.Ltmp481:
.Ltmp245:
	.loc	28 58 25
	movq	56(%rsp), %r14
	movq	64(%rsp), %r15
.Ltmp482:
	.loc	28 0 25
	movq	40(%rsp), %rax
.Ltmp483:
	.loc	10 1281 5 is_stmt 1
	subq	%r13, %rax
.Ltmp484:
	.loc	8 415 9
	cmpq	%r15, %rax
.Ltmp485:
	.loc	8 332 12
	jae	.LBB13_110
.Ltmp486:
.Ltmp246:
	.loc	8 0 12 is_stmt 0
	movq	%rsp, %rdi
	.loc	8 333 13 is_stmt 1
	movq	%r13, %rsi
	movq	%r15, %rdx
	callq	_ZN5alloc7raw_vec19RawVec$LT$T$C$A$GT$7reserve21do_reserve_and_handle17h4c785d08221ccc72E
.Ltmp487:
.Ltmp247:
	.loc	8 258 9
	movq	8(%rsp), %rdi
.Ltmp488:
	.loc	17 2203 9
	movq	16(%rsp), %r13
	jmp	.LBB13_115
.Ltmp489:
.LBB13_135:
.Ltmp233:
	.loc	28 42 29
	leaq	.L__unnamed_5(%rip), %rdx
.Ltmp490:
	movl	$1000000, %esi
.Ltmp491:
	movq	%r12, %rdi
.Ltmp492:
	callq	*_ZN4core9panicking18panic_bounds_check17h9bb22f08a42e1ac8E@GOTPCREL(%rip)
.Ltmp493:
.Ltmp234:
	.loc	28 0 29 is_stmt 0
	jmp	.LBB13_16
.Ltmp494:
.LBB13_110:
	movq	32(%rsp), %rdi
.Ltmp495:
.LBB13_115:
	.loc	33 1049 18 is_stmt 1
	addq	%r13, %rdi
.Ltmp496:
	.loc	30 2987 14
	movq	%r14, %rsi
	movq	%r15, %rdx
	callq	*memcpy@GOTPCREL(%rip)
.Ltmp497:
	.loc	17 2095 9
	addq	%r15, %r13
.Ltmp498:
	movq	%r13, 16(%rsp)
.Ltmp499:
	.loc	28 58 46
	movq	48(%rsp), %rsi
.Ltmp500:
	.loc	8 280 25
	testq	%rsi, %rsi
	je	.LBB13_117
.Ltmp501:
	.loc	9 119 14
	movl	$1, %edx
	movq	%r14, %rdi
	callq	*__rust_dealloc@GOTPCREL(%rip)
.Ltmp502:
.LBB13_117:
	.loc	8 271 44
	movq	(%rsp), %rax
.Ltmp503:
	.loc	10 1281 5
	subq	%r13, %rax
.Ltmp504:
	.loc	8 415 9
	cmpq	$2, %rax
.Ltmp505:
	.loc	8 332 12
	ja	.LBB13_120
.Ltmp506:
.Ltmp249:
	.loc	8 0 12 is_stmt 0
	movq	%rsp, %rdi
	.loc	8 333 13 is_stmt 1
	movl	$3, %edx
	movq	%r13, %rsi
	callq	_ZN5alloc7raw_vec19RawVec$LT$T$C$A$GT$7reserve21do_reserve_and_handle17h4c785d08221ccc72E
.Ltmp507:
.Ltmp250:
	.loc	17 2203 9
	movq	16(%rsp), %r13
.Ltmp508:
.LBB13_120:
	.loc	8 258 9
	movq	8(%rsp), %rax
.Ltmp509:
	.loc	30 2987 14
	movb	$109, 2(%rax,%r13)
	movw	$23323, (%rax,%r13)
.Ltmp510:
	.loc	17 2095 9
	addq	$3, %r13
.Ltmp511:
	.loc	28 60 5
	movq	%r13, 160(%rsp)
	movups	(%rsp), %xmm0
	movaps	%xmm0, 144(%rsp)
.Ltmp512:
	.loc	28 92 9
	leaq	144(%rsp), %rax
	movq	%rax, 104(%rsp)
	leaq	_ZN60_$LT$alloc..string..String$u20$as$u20$core..fmt..Display$GT$3fmt17h24e91307fb5a420aE(%rip), %rax
	movq	%rax, 112(%rsp)
.Ltmp513:
	.file	35 "/rustc/9b00956e56009bab2aa15d7bff10916599e3d6d6/library/core/src/fmt" "mod.rs"
	.loc	35 343 9
	leaq	.L__unnamed_6(%rip), %rax
.Ltmp514:
	movq	%rax, 48(%rsp)
	movq	$1, 56(%rsp)
	movq	$0, 80(%rsp)
	leaq	104(%rsp), %rax
.Ltmp515:
	movq	%rax, 64(%rsp)
	movq	$1, 72(%rsp)
.Ltmp252:
	leaq	48(%rsp), %rdi
.Ltmp516:
	.loc	28 92 9
	callq	*_ZN3std2io5stdio6_print17h5c2f653c9c3347e5E@GOTPCREL(%rip)
.Ltmp253:
.Ltmp517:
	movq	144(%rsp), %rsi
.Ltmp518:
	.loc	8 280 25
	testq	%rsi, %rsi
	je	.LBB13_123
.Ltmp519:
	.loc	28 92 9
	movq	152(%rsp), %rdi
.Ltmp520:
	.loc	9 119 14
	movl	$1, %edx
	callq	*__rust_dealloc@GOTPCREL(%rip)
.Ltmp521:
.LBB13_123:
	.loc	9 119 14 is_stmt 0
	movl	$4000000, %esi
	movl	$1, %edx
	movq	24(%rsp), %rdi
	callq	*__rust_dealloc@GOTPCREL(%rip)
.Ltmp522:
	.loc	5 515 1 is_stmt 1
	movq	232(%rsp), %rbx
	movq	240(%rsp), %r14
.Ltmp523:
	.loc	5 515 1 is_stmt 0
	testq	%r14, %r14
	je	.LBB13_98
.Ltmp524:
	.loc	8 280 25 is_stmt 1
	leaq	8(%rbx), %r15
	jmp	.LBB13_95
.Ltmp525:
	.p2align	4, 0x90
.LBB13_97:
	.loc	5 515 1
	addq	$24, %r15
	decq	%r14
	je	.LBB13_98
.Ltmp526:
.LBB13_95:
	movq	-8(%r15), %rsi
.Ltmp527:
	.loc	8 280 25
	testq	%rsi, %rsi
	je	.LBB13_97
.Ltmp528:
	.loc	5 515 1
	movq	(%r15), %rdi
.Ltmp529:
	.loc	9 119 14
	movl	$1, %edx
	callq	*__rust_dealloc@GOTPCREL(%rip)
.Ltmp530:
	.loc	9 0 14 is_stmt 0
	jmp	.LBB13_97
.Ltmp531:
.LBB13_98:
	.loc	5 515 1 is_stmt 1
	movq	224(%rsp), %rax
.Ltmp532:
	.loc	8 280 25
	testq	%rax, %rax
	je	.LBB13_100
.Ltmp533:
	.loc	10 1281 5
	shlq	$3, %rax
.Ltmp534:
	leaq	(%rax,%rax,2), %rsi
.Ltmp535:
	.loc	9 119 14
	movl	$8, %edx
	movq	%rbx, %rdi
	callq	*__rust_dealloc@GOTPCREL(%rip)
.Ltmp536:
.LBB13_100:
	.loc	28 94 2 epilogue_begin
	addq	$264, %rsp
	.cfi_def_cfa_offset 56
	popq	%rbx
	.cfi_def_cfa_offset 48
	popq	%r12
	.cfi_def_cfa_offset 40
	popq	%r13
	.cfi_def_cfa_offset 32
	popq	%r14
	.cfi_def_cfa_offset 24
	popq	%r15
	.cfi_def_cfa_offset 16
	popq	%rbp
	.cfi_def_cfa_offset 8
	retq
.LBB13_56:
	.cfi_def_cfa_offset 320
	.loc	28 0 2 is_stmt 0
	xorl	%ebx, %ebx
	movq	_ZN4rand4rngs6thread10thread_rng17h0d7c1f260f63f17aE@GOTPCREL(%rip), %r15
	movq	_ZN4rand4rngs7adapter9reseeding4fork16get_fork_counter17hd2f5eb65ed3b3b37E@GOTPCREL(%rip), %r12
	movq	_ZN11rand_chacha4guts11refill_wide17ha90b8f4cf0dc3164E@GOTPCREL(%rip), %r13
	movq	__rust_dealloc@GOTPCREL(%rip), %rbp
	jmp	.LBB13_57
	.p2align	4, 0x90
.LBB13_86:
.Ltmp537:
.Ltmp230:
	.loc	18 179 20 is_stmt 1
	movq	%rdx, %rsi
	movq	%rax, %rdx
.Ltmp538:
	callq	_ZN4rand4rngs7adapter9reseeding29ReseedingCore$LT$R$C$Rsdr$GT$19reseed_and_generate17ha726589ac268690eE
.Ltmp539:
.Ltmp231:
.LBB13_88:
	.loc	18 0 20 is_stmt 0
	xorl	%eax, %eax
.Ltmp540:
.LBB13_89:
	.file	36 "/home/declan/.cargo/registry/src/index.crates.io-6f17d22bba15001f/rand_core-0.6.4/src" "block.rs"
	.loc	36 191 21 is_stmt 1
	movzbl	16(%r14,%rax,4), %ecx
.Ltmp541:
	.loc	36 192 9
	incq	%rax
	movq	%rax, 272(%r14)
.Ltmp542:
	.loc	36 0 9 is_stmt 0
	movq	24(%rsp), %rax
.Ltmp543:
	.loc	28 74 21 is_stmt 1
	movb	%cl, 3(%rax,%rbx,4)
.Ltmp544:
	.loc	5 1493 9
	decq	(%r14)
.Ltmp545:
	.loc	14 2162 16
	je	.LBB13_90
.Ltmp546:
.LBB13_92:
	.loc	28 0 0 is_stmt 0
	incq	%rbx
.Ltmp547:
	.loc	26 1553 52 is_stmt 1
	cmpq	$1000000, %rbx
.Ltmp548:
	.loc	31 754 12
	je	.LBB13_93
.Ltmp549:
.LBB13_57:
.Ltmp205:
	.loc	28 72 44
	callq	*%r15
.Ltmp206:
.Ltmp550:
	movq	%rax, %r14
.Ltmp551:
	.loc	36 187 12
	movq	272(%rax), %rax
	cmpq	$64, %rax
	jb	.LBB13_67
.Ltmp552:
.Ltmp207:
	.loc	18 174 35
	callq	*%r12
.Ltmp553:
.Ltmp208:
	.file	37 "/home/declan/.cargo/registry/src/index.crates.io-6f17d22bba15001f/rand-0.8.5/src/rngs" "thread.rs"
	.loc	37 0 0 is_stmt 0
	leaq	16(%r14), %rdx
.Ltmp554:
	.loc	36 176 9 is_stmt 1
	movq	%r14, %rdi
	addq	$288, %rdi
.Ltmp555:
	.loc	18 175 12
	movq	344(%r14), %rcx
	testq	%rcx, %rcx
	jle	.LBB13_62
.Ltmp556:
	.loc	18 237 9
	cmpq	%rax, 352(%r14)
.Ltmp557:
	.loc	18 175 44
	js	.LBB13_62
.Ltmp558:
	.loc	18 182 9
	addq	$-256, %rcx
	movq	%rcx, 344(%r14)
.Ltmp559:
.Ltmp209:
	.loc	22 85 9
	movl	$6, %esi
	callq	*%r13
.Ltmp560:
.Ltmp210:
	.loc	22 0 9 is_stmt 0
	jmp	.LBB13_66
.Ltmp561:
	.p2align	4, 0x90
.LBB13_90:
	.loc	5 1493 9 is_stmt 1
	decq	8(%r14)
.Ltmp562:
	.loc	14 2170 20
	jne	.LBB13_92
.Ltmp563:
	.loc	9 119 14
	movl	$368, %esi
	movl	$16, %edx
	movq	%r14, %rdi
	callq	*%rbp
	jmp	.LBB13_92
.Ltmp564:
	.p2align	4, 0x90
.LBB13_62:
.Ltmp211:
	.loc	18 179 20
	movq	%rdx, %rsi
	movq	%rax, %rdx
.Ltmp565:
	callq	_ZN4rand4rngs7adapter9reseeding29ReseedingCore$LT$R$C$Rsdr$GT$19reseed_and_generate17ha726589ac268690eE
.Ltmp566:
.Ltmp212:
.LBB13_66:
	.loc	18 0 20 is_stmt 0
	xorl	%eax, %eax
.Ltmp567:
.LBB13_67:
	.loc	36 191 21 is_stmt 1
	movzbl	16(%r14,%rax,4), %ecx
.Ltmp568:
	.loc	36 192 9
	incq	%rax
	movq	%rax, 272(%r14)
.Ltmp569:
	.loc	36 0 9 is_stmt 0
	movq	24(%rsp), %rax
.Ltmp570:
	.loc	28 72 21 is_stmt 1
	movb	%cl, 1(%rax,%rbx,4)
.Ltmp571:
	.loc	5 1493 9
	decq	(%r14)
.Ltmp572:
	.loc	14 2162 16
	jne	.LBB13_70
.Ltmp573:
	.loc	5 1493 9
	decq	8(%r14)
.Ltmp574:
	.loc	14 2170 20
	jne	.LBB13_70
.Ltmp575:
	.loc	9 119 14
	movl	$368, %esi
	movl	$16, %edx
	movq	%r14, %rdi
	callq	*%rbp
.Ltmp576:
	.p2align	4, 0x90
.LBB13_70:
.Ltmp214:
	.loc	28 73 44
	callq	*%r15
.Ltmp215:
.Ltmp577:
	movq	%rax, %r14
.Ltmp578:
	.loc	36 187 12
	movq	272(%rax), %rax
	cmpq	$64, %rax
	jb	.LBB13_78
.Ltmp579:
.Ltmp216:
	.loc	18 174 35
	callq	*%r12
.Ltmp580:
.Ltmp217:
	.loc	37 0 0 is_stmt 0
	leaq	16(%r14), %rdx
.Ltmp581:
	.loc	36 176 9 is_stmt 1
	movq	%r14, %rdi
	addq	$288, %rdi
.Ltmp582:
	.loc	18 175 12
	movq	344(%r14), %rcx
	testq	%rcx, %rcx
	jle	.LBB13_75
.Ltmp583:
	.loc	18 237 9
	cmpq	%rax, 352(%r14)
.Ltmp584:
	.loc	18 175 44
	js	.LBB13_75
.Ltmp585:
	.loc	18 182 9
	addq	$-256, %rcx
	movq	%rcx, 344(%r14)
.Ltmp586:
.Ltmp218:
	.loc	22 85 9
	movl	$6, %esi
	callq	*%r13
.Ltmp587:
.Ltmp219:
	.loc	22 0 9 is_stmt 0
	jmp	.LBB13_77
.Ltmp588:
	.p2align	4, 0x90
.LBB13_75:
.Ltmp220:
	.loc	18 179 20 is_stmt 1
	movq	%rdx, %rsi
	movq	%rax, %rdx
.Ltmp589:
	callq	_ZN4rand4rngs7adapter9reseeding29ReseedingCore$LT$R$C$Rsdr$GT$19reseed_and_generate17ha726589ac268690eE
.Ltmp590:
.Ltmp221:
.LBB13_77:
	.loc	18 0 20 is_stmt 0
	xorl	%eax, %eax
.Ltmp591:
.LBB13_78:
	.loc	36 191 21 is_stmt 1
	movzbl	16(%r14,%rax,4), %ecx
.Ltmp592:
	.loc	36 192 9
	incq	%rax
	movq	%rax, 272(%r14)
.Ltmp593:
	.loc	36 0 9 is_stmt 0
	movq	24(%rsp), %rax
.Ltmp594:
	.loc	28 73 21 is_stmt 1
	movb	%cl, 2(%rax,%rbx,4)
.Ltmp595:
	.loc	5 1493 9
	decq	(%r14)
.Ltmp596:
	.loc	14 2162 16
	jne	.LBB13_81
.Ltmp597:
	.loc	5 1493 9
	decq	8(%r14)
.Ltmp598:
	.loc	14 2170 20
	jne	.LBB13_81
.Ltmp599:
	.loc	9 119 14
	movl	$368, %esi
	movl	$16, %edx
	movq	%r14, %rdi
	callq	*%rbp
.Ltmp600:
	.p2align	4, 0x90
.LBB13_81:
.Ltmp223:
	.loc	28 74 44
	callq	*%r15
.Ltmp224:
.Ltmp601:
	movq	%rax, %r14
.Ltmp602:
	.loc	36 187 12
	movq	272(%rax), %rax
	cmpq	$64, %rax
	jb	.LBB13_89
.Ltmp603:
.Ltmp226:
	.loc	18 174 35
	callq	*%r12
.Ltmp604:
.Ltmp227:
	.loc	37 0 0 is_stmt 0
	leaq	16(%r14), %rdx
.Ltmp605:
	.loc	36 176 9 is_stmt 1
	movq	%r14, %rdi
	addq	$288, %rdi
.Ltmp606:
	.loc	18 175 12
	movq	344(%r14), %rcx
	testq	%rcx, %rcx
	jle	.LBB13_86
.Ltmp607:
	.loc	18 237 9
	cmpq	%rax, 352(%r14)
.Ltmp608:
	.loc	18 175 44
	js	.LBB13_86
.Ltmp609:
	.loc	18 182 9
	addq	$-256, %rcx
	movq	%rcx, 344(%r14)
.Ltmp610:
.Ltmp228:
	.loc	22 85 9
	movl	$6, %esi
	callq	*%r13
.Ltmp611:
.Ltmp229:
	.loc	22 0 9 is_stmt 0
	jmp	.LBB13_88
.Ltmp612:
.LBB13_55:
.Ltmp263:
	.loc	28 69 15 is_stmt 1
	leaq	.L__unnamed_7(%rip), %rdx
	xorl	%edi, %edi
	xorl	%esi, %esi
	callq	*_ZN4core9panicking18panic_bounds_check17h9bb22f08a42e1ac8E@GOTPCREL(%rip)
.Ltmp264:
	jmp	.LBB13_16
.Ltmp613:
.LBB13_163:
	.loc	25 1953 17
	movq	152(%rsp), %rdi
.Ltmp614:
	.loc	25 827 9
	testq	%rdi, %rdi
	movq	256(%rsp), %r13
.Ltmp615:
	jne	.LBB13_165
.Ltmp616:
.LBB13_164:
.Ltmp255:
	.loc	8 566 34
	callq	*_ZN5alloc7raw_vec17capacity_overflow17h7ec064f2e7244a51E@GOTPCREL(%rip)
.Ltmp256:
	jmp	.LBB13_16
.Ltmp617:
.LBB13_145:
	.loc	25 1953 17
	movq	152(%rsp), %rdi
.Ltmp618:
	.loc	25 827 9
	testq	%rdi, %rdi
	jne	.LBB13_147
.Ltmp619:
.LBB13_146:
.Ltmp258:
	.loc	8 566 34
	callq	*_ZN5alloc7raw_vec17capacity_overflow17h7ec064f2e7244a51E@GOTPCREL(%rip)
.Ltmp259:
	jmp	.LBB13_16
.Ltmp620:
.LBB13_165:
	.loc	8 329 0
	movq	160(%rsp), %rsi
.Ltmp621:
.Ltmp242:
	.loc	8 567 43
	callq	*_ZN5alloc5alloc18handle_alloc_error17h59557ef4a43cd5a6E@GOTPCREL(%rip)
.Ltmp622:
.Ltmp243:
	.loc	8 0 43 is_stmt 0
	jmp	.LBB13_16
.Ltmp623:
.LBB13_147:
	.loc	8 329 0 is_stmt 1
	movq	160(%rsp), %rsi
.Ltmp624:
.Ltmp237:
	.loc	8 567 43
	callq	*_ZN5alloc5alloc18handle_alloc_error17h59557ef4a43cd5a6E@GOTPCREL(%rip)
.Ltmp625:
.Ltmp238:
	.loc	8 0 43 is_stmt 0
	jmp	.LBB13_16
.Ltmp626:
.LBB13_40:
.Ltmp266:
	.loc	8 567 43
	movl	$1, %edi
	movl	$4000000, %esi
	callq	*_ZN5alloc5alloc18handle_alloc_error17h59557ef4a43cd5a6E@GOTPCREL(%rip)
.Ltmp267:
	jmp	.LBB13_16
.Ltmp627:
.LBB13_94:
.Ltmp261:
	.loc	8 567 43
	movl	$1, %edi
	movl	$10, %esi
	callq	*_ZN5alloc5alloc18handle_alloc_error17h59557ef4a43cd5a6E@GOTPCREL(%rip)
.Ltmp262:
	jmp	.LBB13_16
.Ltmp628:
.LBB13_15:
.Ltmp202:
	.loc	8 566 34 is_stmt 1
	callq	*_ZN5alloc7raw_vec17capacity_overflow17h7ec064f2e7244a51E@GOTPCREL(%rip)
.Ltmp203:
	jmp	.LBB13_16
.Ltmp629:
.LBB13_14:
.Ltmp200:
	.loc	8 567 43
	movl	$8, %edi
	movq	%rbx, %rsi
	callq	*_ZN5alloc5alloc18handle_alloc_error17h59557ef4a43cd5a6E@GOTPCREL(%rip)
.Ltmp630:
.Ltmp201:
.LBB13_16:
	.loc	8 0 43 is_stmt 0
	ud2
.LBB13_111:
.Ltmp631:
.Ltmp248:
	movq	%rax, %rbx
.Ltmp632:
	.loc	28 58 46 is_stmt 1
	movq	48(%rsp), %rsi
.Ltmp633:
	.loc	8 280 25
	testq	%rsi, %rsi
	je	.LBB13_103
.Ltmp634:
	.loc	9 119 14
	movl	$1, %edx
	movq	%r14, %rdi
	callq	*__rust_dealloc@GOTPCREL(%rip)
.Ltmp635:
	.loc	9 0 14 is_stmt 0
	jmp	.LBB13_103
.Ltmp636:
.LBB13_171:
.Ltmp254:
	movq	%rax, %rbx
	.loc	28 92 9 is_stmt 1
	movq	144(%rsp), %rsi
.Ltmp637:
	.loc	8 280 25
	testq	%rsi, %rsi
	je	.LBB13_46
.Ltmp638:
	.loc	28 92 9
	movq	152(%rsp), %rdi
.Ltmp639:
	.loc	28 0 9 is_stmt 0
	jmp	.LBB13_105
.Ltmp640:
.LBB13_43:
.Ltmp268:
	movq	%rax, %rbx
	leaq	224(%rsp), %rdi
	callq	_ZN4core3ptr65drop_in_place$LT$alloc..vec..Vec$LT$alloc..string..String$GT$$GT$17h8f44ff975b8da179E
	movq	%rbx, %rdi
	callq	_Unwind_Resume@PLT
.LBB13_41:
.Ltmp189:
	movq	%rax, %rbx
	leaq	144(%rsp), %rdi
.Ltmp641:
	.loc	29 45 5 is_stmt 1
	callq	_ZN4core3ptr35drop_in_place$LT$std..env..Args$GT$17ha6d47fd8a1f16702E
	movq	%rbx, %rdi
	callq	_Unwind_Resume@PLT
.LBB13_9:
.Ltmp204:
	.loc	29 0 5 is_stmt 0
	movq	%rax, %rbx
.Ltmp642:
	.loc	8 280 25 is_stmt 1
	testq	%r14, %r14
	je	.LBB13_42
.Ltmp643:
	.loc	9 119 14
	movl	$1, %edx
	movq	%r15, %rdi
	movq	%r14, %rsi
	callq	*__rust_dealloc@GOTPCREL(%rip)
.Ltmp644:
.LBB13_42:
	.loc	9 0 14 is_stmt 0
	leaq	144(%rsp), %rdi
	.loc	29 45 5 is_stmt 1
	callq	_ZN4core3ptr35drop_in_place$LT$std..env..Args$GT$17ha6d47fd8a1f16702E
	movq	%rbx, %rdi
	callq	_Unwind_Resume@PLT
.Ltmp645:
.LBB13_63:
.Ltmp213:
	.loc	29 0 5 is_stmt 0
	jmp	.LBB13_64
.LBB13_173:
.Ltmp222:
	jmp	.LBB13_64
.LBB13_174:
.Ltmp232:
.LBB13_64:
.Ltmp646:
	movq	%rax, %rbx
.Ltmp647:
	movq	%r14, %rdi
	callq	_ZN4core3ptr50drop_in_place$LT$rand..rngs..thread..ThreadRng$GT$17hff8866d097a63c5aE
	jmp	.LBB13_46
.Ltmp648:
.LBB13_29:
.Ltmp199:
	movq	%rax, %rbx
.Ltmp649:
	.loc	8 280 25 is_stmt 1
	testq	%r12, %r12
	je	.LBB13_26
.Ltmp650:
	.loc	9 119 14
	movl	$1, %edx
	movq	%r13, %rdi
	movq	%r12, %rsi
	callq	*__rust_dealloc@GOTPCREL(%rip)
	jmp	.LBB13_26
.Ltmp651:
.LBB13_44:
.Ltmp225:
	.loc	9 0 14 is_stmt 0
	jmp	.LBB13_45
.LBB13_25:
.Ltmp652:
.Ltmp194:
	movq	%rax, %rbx
.Ltmp653:
.LBB13_26:
	leaq	48(%rsp), %rdi
	.loc	17 3002 5 is_stmt 1
	callq	_ZN4core3ptr35drop_in_place$LT$std..env..Args$GT$17ha6d47fd8a1f16702E
	leaq	192(%rsp), %rdi
.Ltmp654:
	.loc	28 0 0 is_stmt 0
	callq	_ZN4core3ptr65drop_in_place$LT$alloc..vec..Vec$LT$alloc..string..String$GT$$GT$17h8f44ff975b8da179E
	movq	%rbx, %rdi
	callq	_Unwind_Resume@PLT
.Ltmp655:
.LBB13_48:
.Ltmp265:
.LBB13_45:
	movq	%rax, %rbx
	jmp	.LBB13_46
.LBB13_136:
.Ltmp656:
.Ltmp260:
	movq	%rax, %rbx
.Ltmp657:
	.loc	28 47 58 is_stmt 1
	movq	104(%rsp), %rsi
.Ltmp658:
	.loc	8 280 25
	testq	%rsi, %rsi
	movq	96(%rsp), %rdi
	je	.LBB13_103
.Ltmp659:
	.loc	9 119 14
	movl	$1, %edx
	callq	*__rust_dealloc@GOTPCREL(%rip)
.Ltmp660:
	.loc	9 0 14 is_stmt 0
	jmp	.LBB13_103
.Ltmp661:
.LBB13_154:
.Ltmp257:
	movq	%rax, %rbx
.Ltmp662:
	movq	96(%rsp), %rsi
.Ltmp663:
	.loc	8 280 25 is_stmt 1
	testq	%rsi, %rsi
	je	.LBB13_103
.Ltmp664:
	.loc	9 119 14
	movl	$1, %edx
	movq	%r13, %rdi
	callq	*__rust_dealloc@GOTPCREL(%rip)
	jmp	.LBB13_103
.Ltmp665:
.LBB13_101:
.Ltmp241:
	.loc	9 0 14 is_stmt 0
	jmp	.LBB13_102
.Ltmp666:
.LBB13_106:
.Ltmp251:
.LBB13_102:
	movq	%rax, %rbx
.Ltmp667:
.LBB13_103:
	.loc	28 61 1 is_stmt 1
	movq	(%rsp), %rsi
.Ltmp668:
	.loc	8 280 25
	testq	%rsi, %rsi
	je	.LBB13_46
.Ltmp669:
	.loc	28 61 1
	movq	8(%rsp), %rdi
.Ltmp670:
.LBB13_105:
	.loc	28 92 0
	movl	$1, %edx
	callq	*__rust_dealloc@GOTPCREL(%rip)
.Ltmp671:
.LBB13_46:
	.loc	9 119 14
	movl	$4000000, %esi
	movl	$1, %edx
	movq	24(%rsp), %rdi
	callq	*__rust_dealloc@GOTPCREL(%rip)
	leaq	224(%rsp), %rdi
.Ltmp672:
	.loc	28 0 0 is_stmt 0
	callq	_ZN4core3ptr65drop_in_place$LT$alloc..vec..Vec$LT$alloc..string..String$GT$$GT$17h8f44ff975b8da179E
	movq	%rbx, %rdi
	callq	_Unwind_Resume@PLT
.Ltmp673:
.Lfunc_end13:
	.size	_ZN2rs4main17h49539450424bf0bfE, .Lfunc_end13-_ZN2rs4main17h49539450424bf0bfE
	.cfi_endproc
	.file	38 "/rustc/9b00956e56009bab2aa15d7bff10916599e3d6d6/library/alloc/src/vec" "spec_from_iter.rs"
	.file	39 "/rustc/9b00956e56009bab2aa15d7bff10916599e3d6d6/library/core/src/iter/traits" "iterator.rs"
	.file	40 "/rustc/9b00956e56009bab2aa15d7bff10916599e3d6d6/library/alloc/src/vec" "spec_extend.rs"
	.file	41 "/rustc/9b00956e56009bab2aa15d7bff10916599e3d6d6/library/alloc/src/vec" "spec_from_elem.rs"
	.file	42 "/rustc/9b00956e56009bab2aa15d7bff10916599e3d6d6/library/alloc/src" "slice.rs"
	.file	43 "/rustc/9b00956e56009bab2aa15d7bff10916599e3d6d6/library/alloc/src" "str.rs"
	.file	44 "/rustc/9b00956e56009bab2aa15d7bff10916599e3d6d6/library/core/src" "option.rs"
	.file	45 "/home/declan/.cargo/registry/src/index.crates.io-6f17d22bba15001f/rand-0.8.5/src/distributions" "integer.rs"
	.file	46 "/home/declan/.cargo/registry/src/index.crates.io-6f17d22bba15001f/rand-0.8.5/src" "rng.rs"
	.file	47 "/home/declan/.cargo/registry/src/index.crates.io-6f17d22bba15001f/rand-0.8.5/src/distributions" "uniform.rs"
	.section	.gcc_except_table._ZN2rs4main17h49539450424bf0bfE,"a",@progbits
	.p2align	2, 0x0
GCC_except_table13:
.Lexception1:
	.byte	255
	.byte	255
	.byte	1
	.uleb128 .Lcst_end1-.Lcst_begin1
.Lcst_begin1:
	.uleb128 .Lfunc_begin13-.Lfunc_begin13
	.uleb128 .Ltmp187-.Lfunc_begin13
	.byte	0
	.byte	0
	.uleb128 .Ltmp187-.Lfunc_begin13
	.uleb128 .Ltmp188-.Ltmp187
	.uleb128 .Ltmp189-.Lfunc_begin13
	.byte	0
	.uleb128 .Ltmp188-.Lfunc_begin13
	.uleb128 .Ltmp190-.Ltmp188
	.byte	0
	.byte	0
	.uleb128 .Ltmp190-.Lfunc_begin13
	.uleb128 .Ltmp191-.Ltmp190
	.uleb128 .Ltmp204-.Lfunc_begin13
	.byte	0
	.uleb128 .Ltmp192-.Lfunc_begin13
	.uleb128 .Ltmp193-.Ltmp192
	.uleb128 .Ltmp194-.Lfunc_begin13
	.byte	0
	.uleb128 .Ltmp195-.Lfunc_begin13
	.uleb128 .Ltmp198-.Ltmp195
	.uleb128 .Ltmp199-.Lfunc_begin13
	.byte	0
	.uleb128 .Ltmp198-.Lfunc_begin13
	.uleb128 .Ltmp235-.Ltmp198
	.byte	0
	.byte	0
	.uleb128 .Ltmp235-.Lfunc_begin13
	.uleb128 .Ltmp236-.Ltmp235
	.uleb128 .Ltmp241-.Lfunc_begin13
	.byte	0
	.uleb128 .Ltmp236-.Lfunc_begin13
	.uleb128 .Ltmp239-.Ltmp236
	.byte	0
	.byte	0
	.uleb128 .Ltmp239-.Lfunc_begin13
	.uleb128 .Ltmp240-.Ltmp239
	.uleb128 .Ltmp241-.Lfunc_begin13
	.byte	0
	.uleb128 .Ltmp240-.Lfunc_begin13
	.uleb128 .Ltmp244-.Ltmp240
	.byte	0
	.byte	0
	.uleb128 .Ltmp244-.Lfunc_begin13
	.uleb128 .Ltmp245-.Ltmp244
	.uleb128 .Ltmp251-.Lfunc_begin13
	.byte	0
	.uleb128 .Ltmp246-.Lfunc_begin13
	.uleb128 .Ltmp247-.Ltmp246
	.uleb128 .Ltmp248-.Lfunc_begin13
	.byte	0
	.uleb128 .Ltmp233-.Lfunc_begin13
	.uleb128 .Ltmp234-.Ltmp233
	.uleb128 .Ltmp251-.Lfunc_begin13
	.byte	0
	.uleb128 .Ltmp234-.Lfunc_begin13
	.uleb128 .Ltmp249-.Ltmp234
	.byte	0
	.byte	0
	.uleb128 .Ltmp249-.Lfunc_begin13
	.uleb128 .Ltmp250-.Ltmp249
	.uleb128 .Ltmp251-.Lfunc_begin13
	.byte	0
	.uleb128 .Ltmp252-.Lfunc_begin13
	.uleb128 .Ltmp253-.Ltmp252
	.uleb128 .Ltmp254-.Lfunc_begin13
	.byte	0
	.uleb128 .Ltmp230-.Lfunc_begin13
	.uleb128 .Ltmp231-.Ltmp230
	.uleb128 .Ltmp232-.Lfunc_begin13
	.byte	0
	.uleb128 .Ltmp205-.Lfunc_begin13
	.uleb128 .Ltmp206-.Ltmp205
	.uleb128 .Ltmp225-.Lfunc_begin13
	.byte	0
	.uleb128 .Ltmp207-.Lfunc_begin13
	.uleb128 .Ltmp210-.Ltmp207
	.uleb128 .Ltmp213-.Lfunc_begin13
	.byte	0
	.uleb128 .Ltmp210-.Lfunc_begin13
	.uleb128 .Ltmp211-.Ltmp210
	.byte	0
	.byte	0
	.uleb128 .Ltmp211-.Lfunc_begin13
	.uleb128 .Ltmp212-.Ltmp211
	.uleb128 .Ltmp213-.Lfunc_begin13
	.byte	0
	.uleb128 .Ltmp212-.Lfunc_begin13
	.uleb128 .Ltmp214-.Ltmp212
	.byte	0
	.byte	0
	.uleb128 .Ltmp214-.Lfunc_begin13
	.uleb128 .Ltmp215-.Ltmp214
	.uleb128 .Ltmp225-.Lfunc_begin13
	.byte	0
	.uleb128 .Ltmp216-.Lfunc_begin13
	.uleb128 .Ltmp221-.Ltmp216
	.uleb128 .Ltmp222-.Lfunc_begin13
	.byte	0
	.uleb128 .Ltmp221-.Lfunc_begin13
	.uleb128 .Ltmp223-.Ltmp221
	.byte	0
	.byte	0
	.uleb128 .Ltmp223-.Lfunc_begin13
	.uleb128 .Ltmp224-.Ltmp223
	.uleb128 .Ltmp225-.Lfunc_begin13
	.byte	0
	.uleb128 .Ltmp226-.Lfunc_begin13
	.uleb128 .Ltmp229-.Ltmp226
	.uleb128 .Ltmp232-.Lfunc_begin13
	.byte	0
	.uleb128 .Ltmp263-.Lfunc_begin13
	.uleb128 .Ltmp264-.Ltmp263
	.uleb128 .Ltmp265-.Lfunc_begin13
	.byte	0
	.uleb128 .Ltmp255-.Lfunc_begin13
	.uleb128 .Ltmp256-.Ltmp255
	.uleb128 .Ltmp257-.Lfunc_begin13
	.byte	0
	.uleb128 .Ltmp258-.Lfunc_begin13
	.uleb128 .Ltmp259-.Ltmp258
	.uleb128 .Ltmp260-.Lfunc_begin13
	.byte	0
	.uleb128 .Ltmp242-.Lfunc_begin13
	.uleb128 .Ltmp243-.Ltmp242
	.uleb128 .Ltmp257-.Lfunc_begin13
	.byte	0
	.uleb128 .Ltmp237-.Lfunc_begin13
	.uleb128 .Ltmp238-.Ltmp237
	.uleb128 .Ltmp260-.Lfunc_begin13
	.byte	0
	.uleb128 .Ltmp266-.Lfunc_begin13
	.uleb128 .Ltmp267-.Ltmp266
	.uleb128 .Ltmp268-.Lfunc_begin13
	.byte	0
	.uleb128 .Ltmp261-.Lfunc_begin13
	.uleb128 .Ltmp262-.Ltmp261
	.uleb128 .Ltmp265-.Lfunc_begin13
	.byte	0
	.uleb128 .Ltmp202-.Lfunc_begin13
	.uleb128 .Ltmp201-.Ltmp202
	.uleb128 .Ltmp204-.Lfunc_begin13
	.byte	0
	.uleb128 .Ltmp201-.Lfunc_begin13
	.uleb128 .Lfunc_end13-.Ltmp201
	.byte	0
	.byte	0
.Lcst_end1:
	.p2align	2, 0x0

	.section	.text.main,"ax",@progbits
	.globl	main
	.p2align	4, 0x90
	.type	main,@function
main:
.Lfunc_begin14:
	.cfi_startproc
	pushq	%rax
	.cfi_def_cfa_offset 16
	movq	%rsi, %rcx
	movq	__rustc_debug_gdb_scripts_section__@GOTPCREL(%rip), %rax
	movzbl	(%rax), %eax
	movslq	%edi, %rdx
	leaq	_ZN2rs4main17h49539450424bf0bfE(%rip), %rax
	movq	%rax, (%rsp)
	leaq	.L__unnamed_1(%rip), %rsi
	movq	%rsp, %rdi
	xorl	%r8d, %r8d
	callq	*_ZN3std2rt19lang_start_internal17h103c42a9c4e95084E@GOTPCREL(%rip)
	popq	%rcx
	.cfi_def_cfa_offset 8
	retq
.Lfunc_end14:
	.size	main, .Lfunc_end14-main
	.cfi_endproc

	.type	.L__unnamed_1,@object
	.section	.data.rel.ro..L__unnamed_1,"aw",@progbits
	.p2align	3, 0x0
.L__unnamed_1:
	.quad	_ZN4core3ptr85drop_in_place$LT$std..rt..lang_start$LT$$LP$$RP$$GT$..$u7b$$u7b$closure$u7d$$u7d$$GT$17hb2d11cf6b88fe7c4E
	.asciz	"\b\000\000\000\000\000\000\000\b\000\000\000\000\000\000"
	.quad	_ZN4core3ops8function6FnOnce40call_once$u7b$$u7b$vtable.shim$u7d$$u7d$17h08cfaf9a2982dd00E
	.quad	_ZN3std2rt10lang_start28_$u7b$$u7b$closure$u7d$$u7d$17h7d812531221dcfd8E
	.quad	_ZN3std2rt10lang_start28_$u7b$$u7b$closure$u7d$$u7d$17h7d812531221dcfd8E
	.size	.L__unnamed_1, 48

	.type	.L__unnamed_2,@object
	.section	.rodata.cst8,"aM",@progbits,8
.L__unnamed_2:
	.zero	8
	.size	.L__unnamed_2, 8

	.type	.L__unnamed_8,@object
	.section	.rodata..L__unnamed_8,"a",@progbits
.L__unnamed_8:
	.ascii	"\033[48;2;;;m"
	.size	.L__unnamed_8, 10

	.type	.L__unnamed_3,@object
	.section	.rodata..L__unnamed_3,"a",@progbits
.L__unnamed_3:
	.byte	32
	.size	.L__unnamed_3, 1

	.type	.L__unnamed_9,@object
	.section	.rodata..L__unnamed_9,"a",@progbits
.L__unnamed_9:
	.ascii	"\033[m"
	.size	.L__unnamed_9, 3

	.type	.L__unnamed_10,@object
	.section	.rodata..L__unnamed_10,"a",@progbits
.L__unnamed_10:
	.ascii	"src/main.rs"
	.size	.L__unnamed_10, 11

	.type	.L__unnamed_5,@object
	.section	.data.rel.ro..L__unnamed_5,"aw",@progbits
	.p2align	3, 0x0
.L__unnamed_5:
	.quad	.L__unnamed_10
	.asciz	"\013\000\000\000\000\000\000\000*\000\000\000\035\000\000"
	.size	.L__unnamed_5, 24

	.type	.L__unnamed_11,@object
	.section	.rodata..L__unnamed_11,"a",@progbits
.L__unnamed_11:
	.ascii	"\033[48;2;"
	.size	.L__unnamed_11, 7

	.type	.L__unnamed_12,@object
	.section	.rodata..L__unnamed_12,"a",@progbits
.L__unnamed_12:
	.byte	59
	.size	.L__unnamed_12, 1

	.type	.L__unnamed_13,@object
	.section	.rodata..L__unnamed_13,"a",@progbits
.L__unnamed_13:
	.byte	109
	.size	.L__unnamed_13, 1

	.type	.L__unnamed_4,@object
	.section	.data.rel.ro..L__unnamed_4,"aw",@progbits
	.p2align	3, 0x0
.L__unnamed_4:
	.quad	.L__unnamed_11
	.asciz	"\007\000\000\000\000\000\000"
	.quad	.L__unnamed_12
	.asciz	"\001\000\000\000\000\000\000"
	.quad	.L__unnamed_12
	.asciz	"\001\000\000\000\000\000\000"
	.quad	.L__unnamed_13
	.asciz	"\001\000\000\000\000\000\000"
	.size	.L__unnamed_4, 64

	.type	.L__unnamed_7,@object
	.section	.data.rel.ro..L__unnamed_7,"aw",@progbits
	.p2align	3, 0x0
.L__unnamed_7:
	.quad	.L__unnamed_10
	.asciz	"\013\000\000\000\000\000\000\000E\000\000\000\017\000\000"
	.size	.L__unnamed_7, 24

	.type	.L__unnamed_14,@object
	.section	.rodata..L__unnamed_14,"a",@progbits
.L__unnamed_14:
	.ascii	"\033[H"
	.size	.L__unnamed_14, 3

	.type	.L__unnamed_6,@object
	.section	.data.rel.ro..L__unnamed_6,"aw",@progbits
	.p2align	3, 0x0
.L__unnamed_6:
	.quad	.L__unnamed_14
	.asciz	"\003\000\000\000\000\000\000"
	.size	.L__unnamed_6, 16

	.type	__rustc_debug_gdb_scripts_section__,@object
	.section	.debug_gdb_scripts,"aMS",@progbits,1,unique,1
	.weak	__rustc_debug_gdb_scripts_section__
__rustc_debug_gdb_scripts_section__:
	.asciz	"\001gdb_load_rust_pretty_printers.py"
	.size	__rustc_debug_gdb_scripts_section__, 34

	.section	.data.rel.ro..L__unnamed_1,"aw",@progbits
.Lsec_end0:
	.section	.text._ZN3std10sys_common9backtrace28__rust_begin_short_backtrace17h03e5fc3a2da23548E,"ax",@progbits
.Lsec_end1:
	.section	.text._ZN3std2rt10lang_start17h82ea71c298042edfE,"ax",@progbits
.Lsec_end2:
	.section	".text._ZN3std2rt10lang_start28_$u7b$$u7b$closure$u7d$$u7d$17h7d812531221dcfd8E","ax",@progbits
.Lsec_end3:
	.section	".text._ZN4core3ops8function6FnOnce40call_once$u7b$$u7b$vtable.shim$u7d$$u7d$17h08cfaf9a2982dd00E","ax",@progbits
.Lsec_end4:
	.section	".text._ZN4core3ptr35drop_in_place$LT$std..env..Args$GT$17ha6d47fd8a1f16702E","ax",@progbits
.Lsec_end5:
	.section	".text._ZN4core3ptr50drop_in_place$LT$rand..rngs..thread..ThreadRng$GT$17hff8866d097a63c5aE","ax",@progbits
.Lsec_end6:
	.section	".text._ZN4core3ptr65drop_in_place$LT$alloc..vec..Vec$LT$alloc..string..String$GT$$GT$17h8f44ff975b8da179E","ax",@progbits
.Lsec_end7:
	.section	".text._ZN4core3ptr85drop_in_place$LT$std..rt..lang_start$LT$$LP$$RP$$GT$..$u7b$$u7b$closure$u7d$$u7d$$GT$17hb2d11cf6b88fe7c4E","ax",@progbits
.Lsec_end8:
	.section	".text._ZN4rand4rngs7adapter9reseeding29ReseedingCore$LT$R$C$Rsdr$GT$19reseed_and_generate17ha726589ac268690eE","ax",@progbits
.Lsec_end9:
	.section	.text._ZN5alloc7raw_vec11finish_grow17h7eba675496ecd0d9E,"ax",@progbits
.Lsec_end10:
	.section	".text.unlikely._ZN5alloc7raw_vec19RawVec$LT$T$C$A$GT$7reserve21do_reserve_and_handle17h3ffd46a16a6fbc49E","ax",@progbits
.Lsec_end11:
	.section	".text.unlikely._ZN5alloc7raw_vec19RawVec$LT$T$C$A$GT$7reserve21do_reserve_and_handle17h4c785d08221ccc72E","ax",@progbits
.Lsec_end12:
	.section	".text._ZN60_$LT$alloc..string..String$u20$as$u20$core..fmt..Display$GT$3fmt17h24e91307fb5a420aE","ax",@progbits
.Lsec_end13:
	.section	.text._ZN2rs4main17h49539450424bf0bfE,"ax",@progbits
.Lsec_end14:
	.section	.data.DW.ref.rust_eh_personality,"awG",@progbits,DW.ref.rust_eh_personality,comdat
	.p2align	3, 0x0
	.type	DW.ref.rust_eh_personality,@object
	.size	DW.ref.rust_eh_personality, 8
DW.ref.rust_eh_personality:
	.quad	rust_eh_personality
	.ident	"rustc version 1.78.0 (9b00956e5 2024-04-29)"
	.section	".note.GNU-stack","",@progbits